(dp0
S'score'
p1
(lp2
F-550.0
aF449.0
aF552.0
aF547.0
aF549.0
aF533.0
aF509.0
aF547.0
aF557.0
aF541.0
aF561.0
aF-860.0
aF556.0
aF-460.0
aF-572.0
aF453.0
aF-520.0
aF544.0
aF547.0
aF521.0
aF559.0
aF-466.0
aF551.0
aF439.0
aF525.0
aF551.0
aF283.0
aF531.0
aF21.0
aF545.0
aF526.0
aF-497.0
aF-447.0
aF551.0
aF509.0
aF541.0
aF562.0
aF557.0
aF547.0
aF523.0
aF556.0
aF535.0
aF513.0
aF509.0
aF463.0
aF523.0
aF531.0
aF483.0
aF550.0
aF551.0
aF543.0
aF532.0
aF-359.0
aF535.0
aF535.0
aF551.0
aF553.0
aF543.0
aF543.0
aF549.0
aF551.0
aF257.0
aF-109.0
aF559.0
aF549.0
aF560.0
aF500.0
aF556.0
aF531.0
aF551.0
aF429.0
aF550.0
aF541.0
aF457.0
aF544.0
aF-500.0
aF541.0
aF554.0
aF459.0
aF560.0
aF293.0
aF546.0
aF558.0
aF558.0
aF-468.0
aF561.0
aF551.0
aF-468.0
aF554.0
aF547.0
aF535.0
aF549.0
aF516.0
aF557.0
aF331.0
aF549.0
aF560.0
aF541.0
aF155.0
aF545.0
aF551.0
aF555.0
aF543.0
aF560.0
aF535.0
aF510.0
aF557.0
aF-495.0
aF551.0
aF539.0
aF483.0
aF523.0
aF562.0
aF499.0
aF517.0
aF-469.0
aF-490.0
aF531.0
aF549.0
aF521.0
aF558.0
aF558.0
aF-474.0
aF562.0
aF485.0
aF425.0
aF559.0
aF543.0
aF535.0
aF560.0
aF535.0
aF549.0
aF-540.0
aF-479.0
aF555.0
aF-931.0
aF533.0
aF-478.0
aF535.0
aF544.0
aF556.0
aF-468.0
aF542.0
aF515.0
aF529.0
aF491.0
aF527.0
aF555.0
aF549.0
aF548.0
aF535.0
aF549.0
aF551.0
aF525.0
aF-469.0
aF486.0
aF437.0
aF-265.0
aF534.0
aF500.0
aF527.0
aF537.0
aF531.0
aF552.0
aF535.0
aF547.0
aF531.0
aF487.0
aF546.0
aF543.0
aF553.0
aF529.0
aF464.0
aF521.0
aF543.0
aF537.0
aF471.0
aF554.0
aF543.0
aF498.0
aF519.0
aF539.0
aF-471.0
aF533.0
aF-497.0
aF551.0
aF533.0
aF537.0
aF545.0
aF549.0
aF-474.0
aF552.0
aF545.0
aF527.0
aF389.0
aF507.0
aF553.0
aF554.0
aF519.0
aF550.0
aF523.0
aF167.0
aF551.0
aF551.0
aF515.0
aF538.0
aF553.0
aF540.0
aF548.0
aF514.0
aF553.0
aF-478.0
aF-494.0
aF557.0
aF511.0
aF560.0
aF538.0
aF537.0
aF-479.0
aF513.0
aF535.0
aF537.0
aF497.0
aF545.0
aF525.0
aF523.0
aF560.0
aF523.0
aF503.0
aF529.0
aF557.0
aF505.0
aF548.0
aF508.0
aF535.0
aF511.0
aF227.0
aF538.0
aF331.0
aF505.0
aF546.0
aF549.0
aF395.0
aF545.0
aF546.0
aF525.0
aF556.0
aF547.0
aF359.0
aF529.0
aF523.0
aF545.0
aF-470.0
aF-471.0
aF531.0
aF317.0
aF535.0
aF546.0
aF438.0
aF21.0
aF-518.0
aF539.0
aF545.0
aF525.0
aF559.0
aF543.0
aF555.0
aF560.0
aF529.0
aF549.0
aF549.0
aF553.0
aF541.0
aF541.0
aF545.0
aF505.0
aF560.0
aF542.0
aF537.0
aF555.0
aF541.0
aF528.0
aF447.0
aF427.0
aF555.0
aF517.0
aF543.0
aF349.0
aF537.0
aF557.0
aF527.0
aF-491.0
aF509.0
aF499.0
aF552.0
aF562.0
aF536.0
aF535.0
aF530.0
aF551.0
aF-475.0
aF545.0
aF551.0
aF551.0
aF515.0
aF548.0
aF516.0
aF527.0
aF517.0
aF541.0
aF558.0
aF-480.0
aF558.0
aF529.0
aF445.0
aF-471.0
aF541.0
aF557.0
aF524.0
aF551.0
aF-631.0
aF465.0
aF507.0
aF525.0
aF-475.0
aF535.0
aF559.0
aF552.0
aF503.0
aF535.0
aF555.0
aF558.0
aF551.0
aF545.0
aF525.0
aF555.0
aF555.0
aF555.0
aF541.0
aF-931.0
aF555.0
aF537.0
aF399.0
aF-457.0
aF427.0
aF543.0
aF429.0
aF455.0
aF531.0
aF536.0
aF556.0
aF540.0
aF493.0
aF549.0
aF486.0
aF555.0
aF83.0
aF486.0
aF523.0
aF542.0
aF554.0
aF549.0
aF411.0
aF509.0
aF557.0
aF409.0
aF-461.0
aF-476.0
aF547.0
aF561.0
aF535.0
aF-498.0
aF545.0
aF521.0
aF-466.0
aF539.0
aF535.0
aF560.0
aF-480.0
aF-486.0
aF-461.0
aF145.0
aF535.0
aF-469.0
aF-479.0
aF558.0
aF-926.0
aF-463.0
aF533.0
aF519.0
aF501.0
aF-403.0
aF539.0
aF549.0
aF549.0
aF539.0
aF552.0
aF493.0
aF549.0
aF536.0
aF559.0
aF555.0
aF560.0
aF491.0
aF547.0
aF523.0
aF555.0
aF-462.0
aF491.0
aF546.0
aF527.0
aF542.0
aF535.0
aF544.0
aF550.0
aF509.0
aF557.0
aF531.0
aF552.0
aF532.0
aF517.0
aF501.0
aF-524.0
aF445.0
aF515.0
aF-532.0
aF557.0
aF549.0
aF-1049.0
aF444.0
aF559.0
aF-598.0
aF555.0
aF201.0
aF557.0
aF549.0
aF407.0
aF-451.0
aF-465.0
aF527.0
aF547.0
aF533.0
aF522.0
aF531.0
aF551.0
aF457.0
aF543.0
aF499.0
aF555.0
aF555.0
aF513.0
aF531.0
aF558.0
aF-259.0
aF515.0
aF555.0
aF553.0
aF513.0
aF537.0
aF502.0
aF529.0
aF545.0
aF-510.0
aF552.0
aF515.0
aF455.0
aF541.0
aF526.0
aF548.0
aF557.0
aF529.0
aF547.0
aF483.0
aF549.0
aF483.0
aF-480.0
aF551.0
aF549.0
aF-469.0
aF529.0
aF559.0
aF-467.0
aF544.0
aF501.0
aF553.0
aF549.0
aF-604.0
aF521.0
aF538.0
aF-474.0
aF558.0
aF512.0
aF349.0
aF552.0
aF537.0
aF549.0
aF562.0
aF527.0
aF537.0
aF473.0
asS'reward'
p3
(lp4
I-559
aI4939
aI5042
aI5037
aI5039
aI5023
aI4999
aI5037
aI5047
aI5031
aI5051
aI-860
aI5046
aI-460
aI-572
aI4943
aI-520
aI5034
aI5037
aI5011
aI5049
aI-466
aI5041
aI4929
aI5015
aI5041
aI4773
aI5021
aI4511
aI5035
aI5016
aI-497
aI-457
aI5041
aI4999
aI5031
aI5052
aI5047
aI5037
aI5013
aI5046
aI5025
aI5003
aI4999
aI4953
aI5013
aI5021
aI4973
aI5040
aI5041
aI5033
aI5022
aI4131
aI5025
aI5025
aI5041
aI5043
aI5033
aI5033
aI5039
aI5041
aI4747
aI4381
aI5049
aI5039
aI5050
aI4990
aI5046
aI5021
aI5041
aI4919
aI5040
aI5031
aI4947
aI5034
aI-500
aI5031
aI5044
aI4949
aI5050
aI4783
aI5036
aI5048
aI5048
aI-468
aI5051
aI5041
aI-468
aI5044
aI5037
aI5025
aI5039
aI5006
aI5047
aI4821
aI5039
aI5050
aI5031
aI4645
aI5035
aI5041
aI5045
aI5033
aI5050
aI5025
aI5000
aI5047
aI-495
aI5041
aI5029
aI4973
aI5013
aI5052
aI4989
aI5007
aI-479
aI-490
aI5021
aI5039
aI5011
aI5048
aI5048
aI-474
aI5052
aI4975
aI4915
aI5049
aI5033
aI5025
aI5050
aI5025
aI5039
aI-540
aI-479
aI5045
aI4069
aI5023
aI-478
aI5025
aI5034
aI5046
aI-468
aI5032
aI5005
aI5019
aI4981
aI5017
aI5045
aI5039
aI5038
aI5025
aI5039
aI5041
aI5015
aI-479
aI4976
aI4927
aI4225
aI5024
aI4990
aI5017
aI5027
aI5021
aI5042
aI5025
aI5037
aI5021
aI4977
aI5036
aI5033
aI5043
aI5019
aI4954
aI5011
aI5033
aI5027
aI4961
aI5044
aI5033
aI4988
aI5009
aI5029
aI-471
aI5023
aI-497
aI5041
aI5023
aI5027
aI5035
aI5039
aI-474
aI5042
aI5035
aI5017
aI4879
aI4997
aI5043
aI5044
aI5009
aI5040
aI5013
aI4657
aI5041
aI5041
aI5005
aI5028
aI5043
aI5030
aI5038
aI5004
aI5043
aI-478
aI-494
aI5047
aI5001
aI5050
aI5028
aI5027
aI-479
aI5003
aI5025
aI5027
aI4987
aI5035
aI5015
aI5013
aI5050
aI5013
aI4993
aI5019
aI5047
aI4995
aI5038
aI4998
aI5025
aI5001
aI4717
aI5028
aI4821
aI4995
aI5036
aI5039
aI4885
aI5035
aI5036
aI5015
aI5046
aI5037
aI4849
aI5019
aI5013
aI5035
aI-470
aI-481
aI5021
aI4807
aI5025
aI5036
aI4928
aI4511
aI-518
aI5029
aI5035
aI5015
aI5049
aI5033
aI5045
aI5050
aI5019
aI5039
aI5039
aI5043
aI5031
aI5031
aI5035
aI4995
aI5050
aI5032
aI5027
aI5045
aI5031
aI5018
aI4937
aI4917
aI5045
aI5007
aI5033
aI4839
aI5027
aI5047
aI5017
aI-491
aI4999
aI4989
aI5042
aI5052
aI5026
aI5025
aI5020
aI5041
aI-485
aI5035
aI5041
aI5041
aI5005
aI5038
aI5006
aI5017
aI5007
aI5031
aI5048
aI-480
aI5048
aI5019
aI4935
aI-471
aI5031
aI5047
aI5014
aI5041
aI-631
aI4955
aI4997
aI5015
aI-485
aI5025
aI5049
aI5042
aI4993
aI5025
aI5045
aI5048
aI5041
aI5035
aI5015
aI5045
aI5045
aI5045
aI5031
aI4069
aI5045
aI5027
aI4889
aI-467
aI4917
aI5033
aI4919
aI4945
aI5021
aI5026
aI5046
aI5030
aI4983
aI5039
aI4976
aI5045
aI4573
aI4976
aI5013
aI5032
aI5044
aI5039
aI4901
aI4999
aI5047
aI4899
aI-471
aI-476
aI5037
aI5051
aI5025
aI-498
aI5035
aI5011
aI-476
aI5029
aI5025
aI5050
aI-480
aI-486
aI-471
aI4635
aI5025
aI-469
aI-489
aI5048
aI-926
aI-463
aI5023
aI5009
aI4991
aI4087
aI5029
aI5039
aI5039
aI5029
aI5042
aI4983
aI5039
aI5026
aI5049
aI5045
aI5050
aI4981
aI5037
aI5013
aI5045
aI-462
aI4981
aI5036
aI5017
aI5032
aI5025
aI5034
aI5040
aI4999
aI5047
aI5021
aI5042
aI5022
aI5007
aI4991
aI-524
aI4935
aI5005
aI-532
aI5047
aI5039
aI-1049
aI4934
aI5049
aI-598
aI5045
aI4691
aI5047
aI5039
aI4897
aI-451
aI-475
aI5017
aI5037
aI5023
aI5012
aI5021
aI5041
aI4947
aI5033
aI4989
aI5045
aI5045
aI5003
aI5021
aI5048
aI4231
aI5005
aI5045
aI5043
aI5003
aI5027
aI4992
aI5019
aI5035
aI-510
aI5042
aI5005
aI4945
aI5031
aI5016
aI5038
aI5047
aI5019
aI5037
aI4973
aI5039
aI4973
aI-480
aI5041
aI5039
aI-469
aI5019
aI5049
aI-467
aI5034
aI4991
aI5043
aI5039
aI-604
aI5011
aI5028
aI-474
aI5048
aI5002
aI4839
aI5042
aI5027
aI5039
aI5052
aI5017
aI5027
aI4963
as.