(dp0
S'score'
p1
(lp2
F-494.0
aF-475.0
aF-476.0
aF-475.0
aF-475.0
aF-475.0
aF-478.0
aF-475.0
aF-475.0
aF-475.0
aF-475.0
aF-475.0
aF-475.0
aF-475.0
aF-476.0
aF-475.0
aF-475.0
aF-475.0
aF-475.0
aF-475.0
aF-475.0
aF-475.0
aF-477.0
aF-475.0
aF-475.0
aF-475.0
aF-475.0
aF-475.0
aF-476.0
aF-485.0
aF-475.0
aF-477.0
aF-475.0
aF-475.0
aF-477.0
aF-477.0
aF-485.0
aF-475.0
aF-475.0
aF-477.0
aF-476.0
aF-475.0
aF-475.0
aF-475.0
aF-475.0
aF-475.0
aF-475.0
aF-476.0
aF-475.0
aF-477.0
aF-476.0
aF-475.0
aF-475.0
aF-475.0
aF-475.0
aF-475.0
aF-476.0
aF-475.0
aF-475.0
aF-476.0
aF-475.0
aF-475.0
aF-475.0
aF-475.0
aF-475.0
aF-475.0
aF-475.0
aF-475.0
aF-475.0
aF-475.0
aF-475.0
aF-477.0
aF-478.0
aF-475.0
aF-475.0
aF-477.0
aF-475.0
aF-475.0
aF-486.0
aF-485.0
aF-475.0
aF-475.0
aF-475.0
aF-475.0
aF-475.0
aF-477.0
aF-475.0
aF-476.0
aF554.0
aF-477.0
aF-475.0
aF-475.0
aF-475.0
aF-475.0
aF-475.0
aF-475.0
aF-475.0
aF-475.0
aF-457.0
aF-475.0
aF-475.0
aF-475.0
aF-475.0
aF-476.0
aF-477.0
aF-475.0
aF-475.0
aF-477.0
aF-477.0
aF-475.0
aF-475.0
aF-475.0
aF-475.0
aF-475.0
aF-476.0
aF-475.0
aF-475.0
aF-475.0
aF-477.0
aF-476.0
aF-475.0
aF-476.0
aF-475.0
aF-478.0
aF-475.0
aF-475.0
aF-475.0
aF-477.0
aF-475.0
aF-475.0
aF-475.0
aF554.0
aF-475.0
aF-475.0
aF-478.0
aF-475.0
aF-476.0
aF-475.0
aF-475.0
aF-475.0
aF-476.0
aF-475.0
aF-475.0
aF-475.0
aF-477.0
aF-475.0
aF-475.0
aF-475.0
aF-475.0
aF-475.0
aF-475.0
aF-476.0
aF-475.0
aF-475.0
aF-486.0
aF-486.0
aF-475.0
aF-475.0
aF-475.0
aF-477.0
aF-475.0
aF-476.0
aF-475.0
aF-475.0
aF-475.0
aF-475.0
aF-475.0
aF-478.0
aF-475.0
aF-475.0
aF-475.0
aF-475.0
aF-475.0
aF-477.0
aF-475.0
aF-477.0
aF-475.0
aF-475.0
aF-475.0
aF-477.0
aF-475.0
aF-475.0
aF-486.0
aF-475.0
aF-475.0
aF-478.0
aF-475.0
aF-475.0
aF-475.0
aF-475.0
aF-475.0
aF-476.0
aF-475.0
aF-475.0
aF-475.0
aF-475.0
aF-475.0
aF-475.0
aF-475.0
aF-475.0
aF-475.0
aF-475.0
aF-475.0
aF-477.0
aF-475.0
aF-476.0
aF-477.0
aF-475.0
aF-477.0
aF-475.0
aF-475.0
aF-475.0
aF-477.0
aF-475.0
aF-475.0
aF555.0
aF-475.0
aF-475.0
aF-475.0
aF-475.0
aF-475.0
aF-477.0
aF-475.0
aF-477.0
aF-475.0
aF-475.0
aF-475.0
aF-475.0
aF-475.0
aF-477.0
aF-475.0
aF-475.0
aF-475.0
aF-475.0
aF-475.0
aF-475.0
aF-475.0
aF-475.0
aF-477.0
aF-476.0
aF-477.0
aF-475.0
aF-475.0
aF-486.0
aF-475.0
aF-477.0
aF-475.0
aF-475.0
aF555.0
aF-475.0
aF-475.0
aF-477.0
aF-477.0
aF-476.0
aF-476.0
aF-477.0
aF-475.0
aF-475.0
aF-477.0
aF-477.0
aF-476.0
aF-477.0
aF-475.0
aF-476.0
aF-475.0
aF-475.0
aF-475.0
aF-475.0
aF-478.0
aF-475.0
aF-475.0
aF-475.0
aF-476.0
aF-477.0
aF-475.0
aF-477.0
aF-458.0
aF-496.0
aF-477.0
aF-475.0
aF-475.0
aF-477.0
aF-475.0
aF-478.0
aF-475.0
aF-476.0
aF-475.0
aF-475.0
aF-475.0
aF-459.0
aF-475.0
aF-475.0
aF-475.0
aF-475.0
aF-475.0
aF-477.0
aF-475.0
aF-476.0
aF-475.0
aF-475.0
aF-475.0
aF-477.0
aF-457.0
aF-475.0
aF-475.0
aF-475.0
aF-477.0
aF-475.0
aF-477.0
aF-478.0
aF-475.0
aF-475.0
aF-475.0
aF-477.0
aF-475.0
aF-478.0
aF-475.0
aF-475.0
aF-477.0
aF-475.0
aF-475.0
aF-475.0
aF-475.0
aF-475.0
aF-475.0
aF-475.0
aF-476.0
aF-475.0
aF-477.0
aF-475.0
aF-475.0
aF-477.0
aF-457.0
aF-477.0
aF-475.0
aF-475.0
aF-477.0
aF-475.0
aF-475.0
aF-476.0
aF-477.0
aF-477.0
aF-475.0
aF-475.0
aF-486.0
aF-475.0
aF-477.0
aF-475.0
aF-475.0
aF-476.0
aF-475.0
aF-475.0
aF-477.0
aF-477.0
aF-475.0
aF-477.0
aF-475.0
aF-475.0
aF-475.0
aF-478.0
aF-476.0
aF-477.0
aF-475.0
aF-457.0
aF-478.0
aF-475.0
aF-475.0
aF-475.0
aF-475.0
aF-475.0
aF-477.0
aF-478.0
aF-477.0
aF-475.0
aF-475.0
aF-475.0
aF-475.0
aF-475.0
aF-475.0
aF-475.0
aF-475.0
aF-475.0
aF-475.0
aF-475.0
aF-457.0
aF-478.0
aF-477.0
aF-475.0
aF-477.0
aF-475.0
aF-475.0
aF-476.0
aF-475.0
aF-476.0
aF-476.0
aF-475.0
aF-457.0
aF-475.0
aF-475.0
aF-475.0
aF-477.0
aF-477.0
aF-475.0
aF-475.0
aF-475.0
aF-476.0
aF-475.0
aF-475.0
aF-475.0
aF-475.0
aF-475.0
aF-475.0
aF-477.0
aF-477.0
aF-475.0
aF-475.0
aF-475.0
aF-475.0
aF-475.0
aF-475.0
aF-475.0
aF-475.0
aF-475.0
aF-475.0
aF-475.0
aF-457.0
aF-475.0
aF-475.0
aF-475.0
aF-475.0
aF-475.0
aF-475.0
aF-477.0
aF-457.0
aF-475.0
aF-475.0
aF-475.0
aF-477.0
aF-475.0
aF551.0
aF-475.0
aF-475.0
aF-475.0
aF-475.0
aF-475.0
aF-475.0
aF-475.0
aF-475.0
aF-477.0
aF-475.0
aF-475.0
aF-475.0
aF-475.0
aF-475.0
aF-475.0
aF-475.0
aF-475.0
aF-475.0
aF-475.0
aF-496.0
aF-477.0
aF-477.0
aF-475.0
aF-458.0
aF-475.0
aF-475.0
aF-475.0
aF-475.0
aF-475.0
aF-475.0
aF-475.0
aF-475.0
aF-475.0
aF-477.0
aF-475.0
aF-475.0
aF-477.0
aF-475.0
aF-476.0
aF-475.0
aF-475.0
aF-477.0
aF-458.0
aF-475.0
aF-475.0
aF-475.0
aF-475.0
aF-476.0
aF-475.0
aF-475.0
aF-475.0
aF-477.0
aF-475.0
aF-475.0
aF-475.0
aF-477.0
aF-475.0
aF-475.0
aF-475.0
aF-475.0
aF-475.0
aF-475.0
aF-476.0
aF-459.0
aF-475.0
aF-475.0
aF-475.0
aF-475.0
aF-457.0
aF-477.0
aF-475.0
aF-475.0
aF-475.0
aF-475.0
aF-475.0
aF-475.0
aF-478.0
aF-475.0
aF-477.0
aF-475.0
aF-477.0
aF-475.0
aF-475.0
aF-475.0
aF-486.0
aF-475.0
aF-475.0
aF-475.0
aF-475.0
aF-477.0
aF-475.0
aF-475.0
aF-476.0
aF-475.0
aF-477.0
aF-477.0
aF-475.0
aF-477.0
aF-477.0
aF-475.0
aF-477.0
aF-475.0
aF-475.0
aF-475.0
aF-476.0
aF-475.0
aF-475.0
aF-477.0
aF-475.0
aF-475.0
aF-476.0
aF-478.0
aF-475.0
aF-475.0
aF-475.0
aF-478.0
aF-475.0
aF-475.0
aF-475.0
aF-475.0
aF-477.0
aF-486.0
aF-475.0
aF-476.0
aF-475.0
aF-475.0
aF-475.0
aF-476.0
aF-475.0
aF-475.0
aF-476.0
aF-475.0
aF-475.0
aF-475.0
aF-475.0
aF-475.0
aF554.0
aF-475.0
aF-475.0
aF-477.0
aF-475.0
aF-476.0
aF-475.0
aF-475.0
aF-475.0
aF-477.0
aF-475.0
aF-477.0
aF-475.0
aF-475.0
aF-486.0
aF-462.0
aF-475.0
aF-475.0
aF-476.0
aF-477.0
aF-475.0
aF-496.0
aF-475.0
aF-475.0
aF-475.0
aF-475.0
aF-475.0
aF-475.0
aF-475.0
aF-475.0
aF-458.0
aF-475.0
aF-475.0
aF-475.0
aF-475.0
aF-475.0
aF-477.0
aF-475.0
aF-475.0
aF-475.0
aF-476.0
aF-477.0
aF-475.0
aF-475.0
aF-477.0
aF-477.0
aF-475.0
aF-475.0
aF-475.0
aF-475.0
aF-496.0
aF-475.0
aF-475.0
aF-475.0
aF-475.0
aF-477.0
aF-477.0
aF-475.0
aF-477.0
aF-475.0
aF-475.0
aF-475.0
aF-475.0
aF-475.0
aF-476.0
aF-475.0
aF-475.0
aF-475.0
aF-477.0
aF-475.0
aF-475.0
aF-477.0
aF-475.0
aF-475.0
aF-475.0
aF-475.0
aF-476.0
aF-457.0
aF-475.0
aF-475.0
aF-475.0
aF-457.0
aF-475.0
aF-475.0
aF-477.0
aF-475.0
aF-476.0
aF-475.0
aF-477.0
aF-475.0
aF-475.0
aF-475.0
aF-475.0
aF-475.0
aF-475.0
aF-475.0
aF-476.0
aF-475.0
aF-475.0
aF-475.0
aF-475.0
aF-475.0
aF-475.0
aF-477.0
aF-475.0
aF-475.0
aF-477.0
aF-475.0
aF-477.0
aF-475.0
aF-475.0
aF-477.0
aF-475.0
aF-475.0
aF-475.0
aF-475.0
aF-475.0
aF-475.0
aF-477.0
aF-475.0
aF-475.0
aF-475.0
aF-476.0
aF-485.0
aF-475.0
aF-475.0
aF-475.0
aF-475.0
aF-477.0
aF-475.0
aF-475.0
aF554.0
aF-475.0
aF-475.0
aF-475.0
aF-475.0
aF-475.0
aF-476.0
aF-476.0
aF-476.0
aF-475.0
aF-475.0
aF-475.0
aF-475.0
aF-451.0
aF-475.0
aF-475.0
aF-475.0
aF-475.0
aF-475.0
aF-475.0
aF-475.0
aF-476.0
aF-475.0
aF-475.0
aF-475.0
aF-476.0
aF-477.0
aF-475.0
aF-475.0
aF-462.0
aF-475.0
aF-475.0
aF-475.0
aF-486.0
aF-475.0
aF-486.0
aF-475.0
aF-475.0
aF-476.0
aF-475.0
aF-475.0
aF-475.0
aF-475.0
aF-475.0
aF-475.0
aF-475.0
aF-475.0
aF-475.0
aF-475.0
aF-475.0
aF-475.0
aF-475.0
aF-477.0
aF-475.0
aF-475.0
aF-477.0
aF-475.0
aF-475.0
aF-475.0
aF-476.0
aF-475.0
aF-475.0
aF-475.0
aF-475.0
aF-475.0
aF-475.0
aF-478.0
aF-475.0
aF-476.0
aF-475.0
aF-475.0
aF-476.0
aF-475.0
aF-477.0
aF-475.0
aF-476.0
aF-478.0
aF-475.0
aF-475.0
aF-475.0
aF554.0
aF-475.0
aF-477.0
aF-475.0
aF-477.0
aF555.0
aF-477.0
aF-475.0
aF-475.0
aF-475.0
aF-477.0
aF-475.0
aF-475.0
aF-475.0
aF-477.0
aF-477.0
aF-477.0
aF-475.0
aF-475.0
aF-475.0
aF-475.0
aF-477.0
aF-475.0
aF-475.0
aF-477.0
aF-475.0
aF-475.0
aF-477.0
aF-475.0
aF-475.0
aF-477.0
aF-475.0
aF-475.0
aF-475.0
aF-475.0
aF-475.0
aF-475.0
aF-475.0
aF-475.0
aF-477.0
aF-475.0
aF-476.0
aF-475.0
aF-477.0
aF-477.0
aF-477.0
aF-477.0
aF-475.0
aF-475.0
aF-477.0
aF-475.0
aF-475.0
aF-475.0
aF-475.0
aF-475.0
aF-475.0
aF-475.0
aF-477.0
aF-475.0
aF-451.0
aF-477.0
aF-475.0
aF-477.0
aF-477.0
aF-475.0
aF-477.0
aF-477.0
aF-475.0
aF-475.0
aF-459.0
aF-475.0
aF-475.0
aF-477.0
aF-475.0
aF-486.0
aF-475.0
aF-475.0
aF-477.0
aF-475.0
aF-475.0
aF-475.0
aF-475.0
aF535.0
aF-475.0
aF-475.0
aF-475.0
aF-475.0
aF-475.0
aF-475.0
aF-475.0
aF-475.0
aF-477.0
aF-477.0
aF-475.0
aF-475.0
aF-477.0
aF-475.0
aF-475.0
aF-457.0
aF-475.0
aF-475.0
aF-475.0
aF-475.0
aF-475.0
aF-475.0
aF-475.0
aF-475.0
aF-475.0
aF-475.0
aF-475.0
aF-475.0
aF-475.0
aF-477.0
aF-475.0
aF-475.0
aF-477.0
aF-477.0
aF-477.0
aF-477.0
aF-475.0
aF-475.0
aF-475.0
aF-475.0
aF-477.0
aF-475.0
aF-475.0
aF-475.0
aF-475.0
aF-475.0
aF-477.0
aF-475.0
aF-477.0
aF-486.0
aF-475.0
aF-475.0
aF-477.0
aF-477.0
aF-475.0
aF-475.0
aF-477.0
aF-475.0
aF-475.0
aF-475.0
aF-475.0
aF-477.0
aF-488.0
aF554.0
aF553.0
aF-475.0
aF-475.0
aF-477.0
aF-475.0
aF-475.0
aF-475.0
aF-475.0
aF-475.0
aF-475.0
aF-475.0
aF555.0
aF-475.0
aF-475.0
aF-475.0
aF-475.0
aF-477.0
aF-475.0
aF-477.0
aF-475.0
aF-457.0
aF-475.0
aF-475.0
aF-475.0
aF-475.0
aF-475.0
aF-475.0
aF-475.0
aF-475.0
aF-475.0
aF-475.0
aF-475.0
aF-475.0
aF-475.0
aF-475.0
aF-475.0
aF-475.0
aF-475.0
aF-475.0
aF-477.0
aF-475.0
aF-475.0
aF-475.0
aF-477.0
aF-458.0
aF-475.0
aF-475.0
aF-475.0
aF-475.0
aF-475.0
aF-486.0
aF-475.0
aF-475.0
aF-475.0
aF-475.0
aF540.0
aF-477.0
aF-475.0
aF-475.0
aF-477.0
aF-475.0
aF-475.0
aF-475.0
aF-475.0
aF-475.0
aF-475.0
aF-475.0
aF-475.0
aF-475.0
aF-475.0
aF-475.0
aF-475.0
aF-475.0
aF555.0
aF-475.0
aF-477.0
aF-475.0
aF-477.0
aF-477.0
aF-475.0
aF-475.0
aF-475.0
aF-475.0
aF-477.0
aF-475.0
aF-475.0
aF-475.0
aF-475.0
aF-451.0
aF-475.0
aF-475.0
aF-475.0
aF-475.0
aF-475.0
aF-477.0
aF-475.0
aF-475.0
aF-477.0
aF-477.0
aF-475.0
aF-477.0
aF-477.0
aF-475.0
aF-475.0
aF-475.0
aF-475.0
aF-477.0
aF-475.0
aF-475.0
aF-475.0
aF-477.0
aF-477.0
aF-477.0
aF-475.0
aF-475.0
aF-475.0
aF-475.0
aF-475.0
aF-477.0
aF-475.0
aF-475.0
aF-475.0
aF-475.0
aF-475.0
aF-475.0
aF-475.0
aF-475.0
aF-475.0
aF-475.0
aF-477.0
aF-475.0
aF-477.0
aF-477.0
aF-475.0
aF-478.0
aF-477.0
aF-477.0
aF-475.0
aF-475.0
aF-475.0
aF-477.0
aF-475.0
aF-477.0
aF-477.0
aF-475.0
aF-475.0
aF-475.0
aF-475.0
aF-475.0
aF-477.0
aF-477.0
aF-477.0
aF-475.0
aF-475.0
aF-475.0
aF-475.0
aF-475.0
aF-451.0
aF-477.0
aF-475.0
aF-475.0
aF-475.0
aF-475.0
aF-475.0
aF-475.0
aF-475.0
aF-477.0
aF-475.0
aF-477.0
aF-475.0
aF-475.0
aF-491.0
aF-475.0
aF-475.0
aF-475.0
aF-477.0
aF-475.0
aF-475.0
aF-475.0
aF-475.0
aF-475.0
aF-475.0
aF-477.0
aF-475.0
aF-475.0
aF-475.0
aF-475.0
aF-475.0
aF-475.0
aF-475.0
aF-475.0
aF-475.0
aF-475.0
aF-477.0
aF-475.0
aF-475.0
aF-475.0
aF-475.0
aF-475.0
aF-475.0
aF-475.0
aF-475.0
aF-475.0
aF-475.0
aF-475.0
aF-475.0
aF-477.0
aF-475.0
aF-486.0
aF-475.0
aF-475.0
aF-475.0
aF-475.0
aF-475.0
aF-475.0
aF-475.0
aF-475.0
aF-475.0
aF-475.0
aF-477.0
aF-477.0
aF-477.0
aF-477.0
aF-475.0
aF-475.0
aF-475.0
aF-475.0
aF-475.0
aF-475.0
aF-475.0
aF-497.0
aF-475.0
aF-475.0
aF-475.0
aF-475.0
aF-477.0
aF-475.0
aF-477.0
aF-477.0
aF-477.0
aF-477.0
aF-477.0
aF-477.0
aF-475.0
aF-451.0
aF-475.0
aF-475.0
aF-475.0
aF-457.0
aF-475.0
aF-475.0
aF-475.0
aF-477.0
aF-477.0
aF-475.0
aF-475.0
aF-475.0
aF-467.0
aF-477.0
aF-461.0
aF-475.0
aF-475.0
aF-475.0
aF-475.0
aF-475.0
aF-475.0
aF-477.0
aF-477.0
aF-475.0
aF-475.0
aF-477.0
aF-475.0
aF-477.0
aF-477.0
aF-477.0
aF-475.0
aF-475.0
aF-475.0
aF-475.0
aF-475.0
aF-475.0
aF-475.0
aF-478.0
aF-475.0
aF-475.0
aF-475.0
aF-475.0
aF-477.0
aF-475.0
aF-477.0
aF-477.0
aF-475.0
aF-475.0
aF-475.0
aF-475.0
aF-475.0
aF-475.0
aF-477.0
aF-475.0
aF-477.0
aF-475.0
aF-475.0
aF-475.0
aF-475.0
aF-475.0
aF-475.0
aF-475.0
aF-477.0
aF-475.0
aF-477.0
aF-477.0
aF-475.0
aF-475.0
aF-475.0
aF-477.0
aF-477.0
aF-475.0
aF-475.0
aF-475.0
aF-475.0
aF-475.0
aF-475.0
aF-475.0
aF-475.0
aF-477.0
aF-475.0
aF-475.0
aF-475.0
aF-475.0
aF-475.0
aF-477.0
aF-475.0
aF-475.0
aF-475.0
aF-475.0
aF-475.0
aF-477.0
aF-475.0
aF-475.0
aF-1003.0
aF-477.0
aF-475.0
aF-475.0
aF-477.0
aF-477.0
aF-477.0
aF-475.0
aF-475.0
aF-475.0
aF-475.0
aF-475.0
aF-475.0
aF-475.0
aF-475.0
aF-475.0
aF-461.0
aF552.0
aF-477.0
aF-477.0
aF-475.0
aF-475.0
aF-477.0
aF-477.0
aF-475.0
aF-477.0
aF-475.0
aF-475.0
aF-477.0
aF-471.0
aF-475.0
aF-475.0
aF-475.0
aF-477.0
aF-475.0
aF-475.0
aF-475.0
aF-475.0
aF-475.0
aF-475.0
aF-475.0
aF-475.0
aF-477.0
aF-475.0
aF-475.0
aF-475.0
aF-475.0
aF-475.0
aF-475.0
aF-475.0
aF-475.0
aF-475.0
aF-475.0
aF-477.0
aF-475.0
aF-475.0
aF-477.0
aF-475.0
aF-475.0
aF-477.0
aF-475.0
aF-475.0
aF-475.0
aF555.0
aF-477.0
aF-475.0
aF-475.0
aF-475.0
aF-475.0
aF-475.0
aF-487.0
aF-475.0
aF-475.0
aF-475.0
aF-461.0
aF-475.0
aF-475.0
aF-475.0
aF-475.0
aF-475.0
aF-477.0
aF-475.0
aF-477.0
aF-475.0
aF-477.0
aF-475.0
aF-498.0
aF-475.0
aF-475.0
aF-475.0
aF-475.0
aF-475.0
aF-477.0
aF-461.0
aF-475.0
aF-475.0
aF-475.0
aF-475.0
aF-475.0
aF-475.0
aF-475.0
aF-477.0
aF-477.0
aF-475.0
aF-475.0
aF-475.0
aF-477.0
aF-477.0
aF-475.0
aF-475.0
aF-461.0
aF-475.0
aF-475.0
aF-475.0
aF-475.0
aF549.0
aF-475.0
aF-477.0
aF-477.0
aF-475.0
aF-477.0
aF-477.0
aF-475.0
aF-475.0
aF-475.0
aF-475.0
aF-475.0
aF555.0
aF-475.0
aF-477.0
aF-477.0
aF-477.0
aF-475.0
aF-475.0
aF-475.0
aF-475.0
aF-475.0
aF-475.0
aF-488.0
aF-475.0
aF-475.0
aF-475.0
aF-475.0
aF-475.0
aF-475.0
aF-477.0
aF-475.0
aF-475.0
aF-475.0
aF-475.0
aF-475.0
aF-475.0
aF-475.0
aF-475.0
aF-475.0
aF-475.0
aF-475.0
aF-477.0
aF-488.0
aF-475.0
aF-475.0
aF-475.0
aF-475.0
aF-451.0
aF-475.0
aF-475.0
aF-475.0
aF-475.0
aF-475.0
aF-477.0
aF-477.0
aF-475.0
aF555.0
aF555.0
aF-475.0
aF-475.0
aF-475.0
aF-475.0
aF-475.0
aF-475.0
aF-477.0
aF-475.0
aF-477.0
aF-477.0
aF-475.0
aF-477.0
aF-475.0
aF-477.0
aF-475.0
aF-475.0
aF-477.0
aF-477.0
aF-477.0
aF-475.0
aF-475.0
aF-477.0
aF-475.0
aF-477.0
aF-475.0
aF-475.0
aF555.0
aF547.0
aF-477.0
aF-475.0
aF-477.0
aF-477.0
aF-475.0
aF-502.0
aF-477.0
aF-477.0
aF-475.0
aF-477.0
aF-475.0
aF-616.0
aF405.0
aF-511.0
aF-463.0
aF555.0
aF555.0
aF555.0
aF-487.0
aF-9.0
aF-498.0
aF-463.0
aF-571.0
aF165.0
aF447.0
aF553.0
aF-463.0
aF-463.0
aF-475.0
aF550.0
aF-486.0
aF554.0
aF-478.0
aF542.0
aF-479.0
aF531.0
aF542.0
aF550.0
aF499.0
aF537.0
aF554.0
aF-463.0
aF-499.0
aF550.0
aF442.0
aF-475.0
aF542.0
aF-463.0
aF-546.0
aF-463.0
aF-487.0
aF-504.0
aF547.0
aF-471.0
aF550.0
aF542.0
aF-524.0
aF537.0
aF-482.0
aF531.0
aF554.0
aF-535.0
aF525.0
aF494.0
aF-530.0
aF-475.0
aF459.0
aF255.0
aF538.0
aF-717.0
aF535.0
aF519.0
aF-475.0
aF495.0
aF-464.0
aF531.0
aF-504.0
aF506.0
aF510.0
aF537.0
aF-486.0
aF531.0
aF531.0
aF537.0
aF492.0
aF501.0
aF369.0
aF525.0
aF483.0
aF-469.0
aF-484.0
aF462.0
aF554.0
aF546.0
aF554.0
aF507.0
aF543.0
aF542.0
aF537.0
aF555.0
aF531.0
aF543.0
aF-520.0
aF-496.0
aF542.0
aF537.0
aF-595.0
aF-486.0
aF-475.0
aF546.0
aF525.0
aF-474.0
aF537.0
aF-461.0
aF554.0
aF-555.0
aF550.0
aF538.0
aF525.0
aF-1036.0
aF525.0
aF535.0
aF-570.0
aF525.0
aF-476.0
aF-570.0
aF-473.0
aF399.0
aF542.0
aF543.0
aF550.0
aF525.0
aF291.0
aF543.0
aF-570.0
aF513.0
aF-487.0
aF405.0
aF525.0
aF-459.0
aF543.0
aF495.0
aF-535.0
aF550.0
aF531.0
aF513.0
aF517.0
aF531.0
aF429.0
aF-500.0
aF543.0
aF541.0
aF459.0
aF-511.0
aF506.0
aF-562.0
aF550.0
aF-498.0
aF542.0
aF-472.0
aF-469.0
aF519.0
aF525.0
aF-486.0
aF-458.0
aF554.0
aF543.0
aF441.0
aF537.0
aF-470.0
aF537.0
aF530.0
aF489.0
aF-486.0
aF-532.0
aF531.0
aF-524.0
aF-535.0
aF499.0
aF525.0
aF525.0
aF554.0
aF-475.0
aF-245.0
aF525.0
aF-461.0
aF531.0
aF-483.0
aF525.0
aF513.0
aF-546.0
aF495.0
aF537.0
aF423.0
aF-511.0
aF525.0
aF513.0
aF531.0
aF489.0
aF537.0
aF554.0
aF-371.0
aF537.0
aF-487.0
aF-476.0
aF-487.0
aF-475.0
aF453.0
aF-486.0
aF554.0
aF-487.0
aF-486.0
aF501.0
aF-501.0
aF501.0
aF-523.0
aF533.0
aF537.0
aF519.0
aF554.0
aF521.0
aF45.0
aF540.0
aF-535.0
aF542.0
aF543.0
aF531.0
aF470.0
aF-499.0
aF-961.0
aF-474.0
aF393.0
aF-474.0
aF531.0
aF537.0
aF542.0
aF543.0
aF483.0
aF-464.0
aF525.0
aF-471.0
aF489.0
aF-583.0
aF531.0
aF530.0
aF537.0
aF-141.0
aF519.0
aF513.0
aF-561.0
aF531.0
aF543.0
aF-536.0
aF501.0
aF-475.0
aF429.0
aF543.0
aF554.0
aF514.0
aF477.0
aF543.0
aF-500.0
aF-582.0
aF-498.0
aF-548.0
aF501.0
aF-643.0
aF537.0
aF441.0
aF-486.0
aF-498.0
aF541.0
aF-510.0
aF-475.0
aF542.0
aF477.0
aF513.0
aF531.0
aF-237.0
aF-499.0
aF550.0
aF417.0
aF513.0
aF545.0
aF-488.0
aF-524.0
aF531.0
aF-475.0
aF549.0
aF545.0
aF501.0
aF501.0
aF-583.0
aF552.0
aF-469.0
aF471.0
aF519.0
aF542.0
aF531.0
aF543.0
aF494.0
aF537.0
aF550.0
aF537.0
aF513.0
aF-488.0
aF550.0
aF-583.0
aF-499.0
aF538.0
aF537.0
aF543.0
aF-571.0
aF531.0
aF550.0
aF519.0
aF554.0
aF495.0
aF386.0
aF531.0
aF453.0
aF-475.0
aF489.0
aF-475.0
aF-488.0
aF-582.0
aF-483.0
aF525.0
aF-487.0
aF495.0
aF-480.0
aF530.0
aF369.0
aF-546.0
aF495.0
aF542.0
aF-472.0
aF-1292.0
aF542.0
aF543.0
aF543.0
aF531.0
aF-464.0
aF-469.0
aF540.0
aF531.0
aF-189.0
aF-460.0
aF-488.0
aF513.0
aF-494.0
aF542.0
aF519.0
aF513.0
aF543.0
aF550.0
aF531.0
aF537.0
aF153.0
aF-472.0
aF489.0
aF535.0
aF-510.0
aF291.0
aF-488.0
aF543.0
aF554.0
aF547.0
aF-500.0
aF525.0
aF523.0
aF543.0
aF-512.0
aF519.0
aF231.0
aF538.0
aF-475.0
aF554.0
aF543.0
aF-487.0
aF-475.0
aF554.0
aF507.0
aF-475.0
aF539.0
aF-474.0
aF-462.0
aF-475.0
aF-552.0
aF543.0
aF-475.0
aF494.0
aF453.0
aF489.0
aF489.0
aF525.0
aF531.0
aF489.0
aF495.0
aF541.0
aF531.0
aF-511.0
aF513.0
aF489.0
aF-522.0
aF-498.0
aF501.0
aF483.0
aF542.0
aF554.0
aF531.0
aF506.0
aF-475.0
aF-643.0
aF519.0
aF-463.0
aF537.0
aF494.0
aF-463.0
aF-461.0
aF537.0
aF-474.0
aF543.0
aF-461.0
aF525.0
aF-475.0
aF533.0
aF525.0
aF549.0
aF422.0
aF-458.0
aF537.0
aF489.0
aF554.0
aF537.0
aF501.0
aF537.0
aF507.0
aF531.0
aF225.0
aF-1183.0
aF530.0
aF-600.0
aF435.0
aF532.0
aF550.0
aF-476.0
aF-496.0
aF506.0
aF501.0
aF554.0
aF489.0
aF501.0
aF-546.0
aF537.0
aF501.0
aF525.0
aF544.0
aF550.0
aF525.0
aF507.0
aF538.0
aF-488.0
aF-475.0
aF542.0
aF525.0
aF537.0
aF525.0
aF537.0
aF537.0
aF550.0
aF531.0
aF530.0
aF-529.0
aF-559.0
aF537.0
aF501.0
aF-1340.0
aF553.0
aF507.0
aF537.0
aF507.0
aF525.0
aF-487.0
aF-544.0
aF-488.0
aF-490.0
aF495.0
aF-485.0
aF477.0
aF543.0
aF-931.0
aF550.0
aF543.0
aF537.0
aF495.0
aF531.0
aF393.0
aF-750.0
aF554.0
aF537.0
aF554.0
aF483.0
aF465.0
aF-486.0
aF537.0
aF-470.0
aF-475.0
aF-460.0
aF441.0
aF513.0
aF474.0
aF543.0
aF542.0
aF537.0
aF129.0
aF483.0
aF507.0
aF543.0
aF538.0
aF545.0
aF513.0
aF554.0
aF531.0
aF525.0
aF537.0
aF531.0
aF537.0
aF-498.0
aF-463.0
aF-475.0
aF554.0
aF531.0
aF525.0
aF537.0
aF-1027.0
aF537.0
aF-484.0
aF-475.0
aF489.0
aF543.0
aF-475.0
aF-494.0
aF533.0
aF554.0
aF519.0
aF554.0
aF-463.0
aF554.0
aF554.0
aF525.0
aF543.0
aF462.0
aF531.0
aF-463.0
aF447.0
aF513.0
aF511.0
aF550.0
aF-498.0
aF543.0
aF-475.0
aF429.0
aF501.0
aF-488.0
aF-529.0
aF-464.0
aF-462.0
aF543.0
aF545.0
aF-500.0
aF-522.0
aF513.0
aF-534.0
aF-1183.0
aF537.0
aF540.0
aF550.0
aF549.0
aF544.0
aF537.0
aF542.0
aF428.0
aF-751.0
aF530.0
aF538.0
aF537.0
aF-488.0
aF549.0
aF553.0
aF-535.0
aF554.0
aF-481.0
aF-487.0
aF519.0
aF-931.0
aF537.0
aF519.0
aF543.0
aF501.0
aF519.0
aF-461.0
aF-466.0
aF-811.0
aF538.0
aF-498.0
aF497.0
aF542.0
aF489.0
aF-475.0
aF525.0
aF520.0
aF471.0
aF537.0
aF-470.0
aF-463.0
aF501.0
aF513.0
aF-499.0
aF548.0
aF542.0
aF537.0
aF-486.0
aF519.0
aF-491.0
aF-512.0
aF537.0
aF550.0
aF531.0
aF-487.0
aF-503.0
aF537.0
aF542.0
aF-493.0
aF530.0
aF-697.0
aF-522.0
aF-472.0
aF550.0
aF501.0
aF543.0
aF537.0
aF-487.0
aF477.0
aF459.0
aF537.0
aF541.0
aF449.0
aF-486.0
aF550.0
aF531.0
aF537.0
aF537.0
aF-487.0
aF519.0
aF513.0
aF554.0
aF441.0
aF521.0
aF513.0
aF-511.0
aF-480.0
aF-477.0
aF-474.0
aF-476.0
aF554.0
aF417.0
aF-532.0
aF519.0
aF-506.0
aF-541.0
aF-471.0
aF-559.0
aF525.0
aF-514.0
aF525.0
aF453.0
aF-467.0
aF507.0
aF422.0
aF-474.0
aF-471.0
aF-498.0
aF477.0
aF-496.0
aF-512.0
aF-472.0
aF541.0
aF525.0
aF543.0
aF482.0
aF-475.0
aF-534.0
aF550.0
aF537.0
aF-535.0
aF-477.0
aF531.0
aF543.0
aF550.0
aF519.0
aF542.0
aF550.0
aF-514.0
aF-486.0
aF545.0
aF501.0
aF-564.0
aF-1244.0
aF-472.0
aF-547.0
aF537.0
aF543.0
aF519.0
aF531.0
aF-619.0
aF-486.0
aF542.0
aF525.0
aF-476.0
aF477.0
aF483.0
aF-475.0
aF489.0
aF-475.0
aF405.0
aF519.0
aF542.0
aF-486.0
aF-524.0
aF537.0
aF538.0
aF532.0
aF486.0
aF537.0
aF525.0
aF-512.0
aF483.0
aF554.0
aF554.0
aF548.0
aF-473.0
aF255.0
aF-522.0
aF543.0
aF542.0
aF-487.0
aF423.0
aF543.0
aF542.0
aF525.0
aF477.0
aF537.0
aF-489.0
aF554.0
aF531.0
aF453.0
aF470.0
aF537.0
aF513.0
aF530.0
aF-527.0
aF535.0
aF548.0
aF-486.0
aF537.0
aF477.0
aF-488.0
aF-463.0
aF547.0
aF-505.0
aF543.0
aF-489.0
aF495.0
aF-570.0
aF543.0
aF550.0
aF501.0
aF513.0
aF513.0
aF533.0
aF-501.0
aF507.0
aF477.0
aF465.0
aF-473.0
aF537.0
aF465.0
aF513.0
aF545.0
aF-547.0
aF-486.0
aF525.0
aF543.0
aF543.0
aF554.0
aF519.0
aF-496.0
aF543.0
aF507.0
aF543.0
aF-1280.0
aF537.0
aF398.0
aF513.0
aF537.0
aF513.0
aF547.0
aF363.0
aF542.0
aF525.0
aF501.0
aF453.0
aF-486.0
aF495.0
aF542.0
aF-534.0
aF537.0
aF537.0
aF-534.0
aF513.0
aF554.0
aF554.0
aF553.0
aF543.0
aF489.0
aF531.0
aF538.0
aF-552.0
aF-512.0
aF-931.0
aF543.0
aF519.0
aF465.0
aF525.0
aF554.0
aF543.0
aF543.0
aF-517.0
aF465.0
aF490.0
aF429.0
aF513.0
aF369.0
aF501.0
aF-547.0
aF-475.0
aF550.0
aF554.0
aF-499.0
aF513.0
aF537.0
aF553.0
aF-486.0
aF529.0
aF481.0
aF-486.0
aF-931.0
aF554.0
aF554.0
aF525.0
aF495.0
aF532.0
aF554.0
aF-486.0
aF453.0
aF525.0
aF525.0
aF-481.0
aF-529.0
aF554.0
aF-478.0
aF554.0
aF507.0
aF554.0
aF494.0
aF554.0
aF549.0
aF-535.0
aF-534.0
aF-499.0
aF-474.0
aF-528.0
aF537.0
aF541.0
aF-482.0
aF-499.0
aF542.0
aF519.0
aF537.0
aF-499.0
aF459.0
aF531.0
aF506.0
aF-508.0
aF537.0
aF-468.0
aF465.0
aF-468.0
aF543.0
aF537.0
aF-471.0
aF519.0
aF459.0
aF531.0
aF513.0
aF501.0
aF-482.0
aF495.0
aF537.0
aF-931.0
aF513.0
aF454.0
aF525.0
aF525.0
aF531.0
aF-499.0
aF540.0
aF-931.0
aF543.0
aF-493.0
aF537.0
aF-475.0
aF506.0
aF-489.0
aF-506.0
aF-607.0
aF477.0
aF554.0
aF530.0
aF536.0
aF-469.0
aF543.0
aF550.0
aF-540.0
aF-501.0
aF543.0
aF543.0
aF530.0
aF530.0
aF-481.0
aF537.0
aF543.0
aF519.0
aF-510.0
aF519.0
aF-511.0
aF-520.0
aF-477.0
aF-499.0
aF542.0
aF-475.0
aF531.0
aF507.0
aF387.0
aF543.0
aF543.0
aF-478.0
aF518.0
aF219.0
aF-489.0
aF545.0
aF549.0
aF543.0
aF509.0
aF537.0
aF-498.0
aF501.0
aF531.0
aF537.0
aF513.0
aF-486.0
aF501.0
aF519.0
aF537.0
aF-487.0
aF381.0
aF-486.0
aF-498.0
aF-485.0
aF-496.0
aF537.0
aF-542.0
aF531.0
aF-493.0
aF513.0
aF-475.0
aF531.0
aF495.0
aF537.0
aF-475.0
aF552.0
aF-502.0
aF537.0
aF513.0
aF-486.0
aF553.0
aF-498.0
aF-547.0
aF531.0
aF537.0
aF483.0
aF356.0
aF531.0
aF-475.0
aF554.0
aF489.0
aF-475.0
aF-522.0
aF-525.0
aF513.0
aF535.0
aF513.0
aF477.0
aF477.0
aF550.0
aF-522.0
aF525.0
aF554.0
aF554.0
aF516.0
aF537.0
aF513.0
aF530.0
aF531.0
aF183.0
aF534.0
aF-500.0
aF519.0
aF531.0
aF-1351.0
aF550.0
aF-486.0
aF542.0
aF554.0
aF542.0
aF501.0
aF531.0
aF-547.0
aF466.0
aF-475.0
aF543.0
aF-498.0
aF526.0
aF513.0
aF538.0
aF543.0
aF535.0
aF-475.0
aF543.0
aF-512.0
aF-493.0
aF554.0
aF531.0
aF554.0
aF-546.0
aF554.0
aF213.0
aF554.0
aF-475.0
aF-476.0
aF-931.0
aF531.0
aF-529.0
aF548.0
aF-475.0
aF-476.0
aF-489.0
aF-547.0
aF-476.0
aF-475.0
aF543.0
aF-619.0
aF554.0
aF525.0
aF531.0
aF-595.0
aF525.0
aF550.0
aF519.0
aF-572.0
aF531.0
aF530.0
aF-551.0
aF-472.0
aF-931.0
aF550.0
aF554.0
aF-571.0
aF-511.0
aF-475.0
aF-490.0
aF549.0
aF550.0
aF-500.0
aF453.0
aF-487.0
aF543.0
aF-486.0
aF538.0
aF489.0
aF543.0
aF537.0
aF531.0
aF537.0
aF513.0
aF-476.0
aF554.0
aF542.0
aF538.0
aF-475.0
aF531.0
aF542.0
aF537.0
aF550.0
aF549.0
aF501.0
aF-471.0
aF129.0
aF441.0
aF513.0
aF554.0
aF-492.0
aF-475.0
aF507.0
aF-595.0
aF518.0
aF-535.0
aF489.0
aF501.0
aF-460.0
aF-548.0
aF543.0
aF-473.0
aF-471.0
aF-536.0
aF-499.0
aF538.0
aF489.0
aF394.0
aF542.0
aF513.0
aF537.0
aF525.0
aF519.0
aF519.0
aF-486.0
aF518.0
aF453.0
aF537.0
aF537.0
aF-463.0
aF453.0
aF-473.0
aF550.0
aF542.0
aF-487.0
aF537.0
aF531.0
aF-488.0
aF531.0
aF537.0
aF429.0
aF537.0
aF533.0
aF550.0
aF-498.0
aF-486.0
aF459.0
aF-475.0
aF-487.0
aF-503.0
aF541.0
aF549.0
aF-475.0
aF-475.0
aF513.0
aF-474.0
aF550.0
aF550.0
aF-488.0
aF553.0
aF-475.0
aF489.0
aF-492.0
aF-571.0
aF-486.0
aF537.0
aF-486.0
aF513.0
aF525.0
aF542.0
aF-499.0
aF-570.0
aF495.0
aF-522.0
aF477.0
aF-523.0
aF-500.0
aF537.0
aF-488.0
aF-464.0
aF547.0
aF537.0
aF513.0
aF543.0
aF-589.0
aF531.0
aF-518.0
aF550.0
aF-487.0
aF531.0
aF-511.0
aF531.0
aF453.0
aF543.0
aF489.0
aF543.0
aF506.0
aF525.0
aF507.0
aF-488.0
aF553.0
aF477.0
aF531.0
aF-511.0
aF-514.0
aF-931.0
aF537.0
aF550.0
aF501.0
aF423.0
aF537.0
aF-512.0
aF554.0
aF-462.0
aF489.0
aF507.0
aF494.0
aF538.0
aF-476.0
aF543.0
aF529.0
aF543.0
aF-461.0
aF513.0
aF-535.0
aF-487.0
aF-460.0
aF537.0
aF525.0
aF-475.0
aF-475.0
aF410.0
aF543.0
aF554.0
aF525.0
aF-491.0
aF501.0
aF-472.0
aF519.0
aF-478.0
aF-511.0
aF542.0
aF-472.0
aF501.0
aF519.0
aF554.0
aF543.0
aF525.0
aF-503.0
aF554.0
aF411.0
aF-474.0
aF543.0
aF-500.0
aF519.0
aF453.0
aF554.0
aF417.0
aF550.0
aF-461.0
aF537.0
aF489.0
aF471.0
aF-511.0
aF-486.0
aF-475.0
aF327.0
aF-476.0
aF550.0
aF543.0
aF542.0
aF-475.0
aF517.0
aF-833.0
aF501.0
aF-461.0
aF-686.0
aF535.0
aF417.0
aF-458.0
aF-931.0
aF-608.0
aF417.0
aF550.0
aF489.0
aF531.0
aF531.0
aF525.0
aF507.0
aF405.0
aF501.0
aF-273.0
aF543.0
aF531.0
aF542.0
aF-461.0
aF-568.0
aF-488.0
aF-486.0
aF-796.0
aF550.0
aF550.0
aF447.0
aF501.0
aF531.0
aF-475.0
aF-469.0
aF507.0
aF-475.0
aF525.0
aF513.0
aF531.0
aF483.0
aF525.0
aF531.0
aF531.0
aF-606.0
aF501.0
aF459.0
aF531.0
aF-462.0
aF533.0
aF554.0
aF495.0
aF522.0
aF554.0
aF531.0
aF-571.0
aF555.0
aF537.0
aF521.0
aF537.0
aF-487.0
aF-644.0
aF-490.0
aF-515.0
aF-714.0
aF-528.0
aF-487.0
aF501.0
aF498.0
aF537.0
aF-477.0
aF543.0
aF-511.0
aF543.0
aF-534.0
aF-491.0
aF-535.0
aF-463.0
aF507.0
aF525.0
aF537.0
aF-1147.0
aF526.0
aF537.0
aF547.0
aF-475.0
aF554.0
aF487.0
aF554.0
aF501.0
aF550.0
aF-487.0
aF-471.0
aF-480.0
aF550.0
aF369.0
aF-511.0
aF-475.0
aF554.0
aF537.0
aF501.0
aF530.0
aF507.0
aF525.0
aF531.0
aF543.0
aF554.0
aF531.0
aF-486.0
aF-469.0
aF542.0
aF-498.0
aF542.0
aF537.0
aF465.0
aF393.0
aF-249.0
aF507.0
aF537.0
aF-475.0
aF537.0
aF554.0
aF547.0
aF-463.0
aF-469.0
aF-512.0
aF-498.0
aF494.0
aF-469.0
aF554.0
aF513.0
aF543.0
aF-510.0
aF525.0
aF513.0
aF516.0
aF-486.0
aF525.0
aF537.0
aF-496.0
aF537.0
aF-486.0
aF-475.0
aF-577.0
aF537.0
aF-475.0
aF525.0
aF542.0
aF-474.0
aF-560.0
aF-523.0
aF537.0
aF537.0
aF507.0
aF-487.0
aF-488.0
aF495.0
aF501.0
aF554.0
aF550.0
aF546.0
aF542.0
aF531.0
aF495.0
aF483.0
aF533.0
aF542.0
aF-511.0
aF519.0
aF501.0
aF435.0
aF531.0
aF-486.0
aF417.0
aF-466.0
aF-558.0
aF-486.0
aF531.0
aF546.0
aF489.0
aF465.0
aF-489.0
aF-489.0
aF550.0
aF501.0
aF525.0
aF-458.0
aF525.0
aF545.0
aF545.0
aF-500.0
aF537.0
aF-510.0
aF543.0
aF-486.0
aF512.0
aF550.0
aF471.0
aF507.0
aF-512.0
aF-630.0
aF553.0
aF507.0
aF-1292.0
aF554.0
aF-510.0
aF435.0
aF-481.0
aF543.0
aF553.0
aF-512.0
aF525.0
aF531.0
aF-475.0
aF-482.0
aF-570.0
aF-475.0
aF-486.0
aF-461.0
aF-511.0
aF-499.0
aF-476.0
aF-620.0
aF552.0
aF543.0
aF525.0
aF526.0
aF-488.0
aF543.0
aF345.0
aF475.0
aF-512.0
aF-535.0
aF-469.0
aF-510.0
aF506.0
aF537.0
aF530.0
aF-475.0
aF-476.0
aF-500.0
aF525.0
aF441.0
aF550.0
aF-469.0
aF-666.0
aF531.0
aF-546.0
aF553.0
aF-481.0
aF543.0
aF513.0
aF537.0
aF549.0
aF519.0
aF-510.0
aF333.0
aF-474.0
aF-680.0
aF-543.0
aF537.0
aF-631.0
aF500.0
aF514.0
aF489.0
aF537.0
aF543.0
aF-487.0
aF-486.0
aF-931.0
aF-479.0
aF-475.0
aF-482.0
aF-500.0
aF195.0
aF550.0
aF-799.0
aF-487.0
aF501.0
aF531.0
aF554.0
aF-500.0
aF531.0
aF-463.0
aF489.0
aF525.0
aF537.0
aF495.0
aF417.0
aF554.0
aF546.0
aF554.0
aF-474.0
aF-548.0
aF554.0
aF531.0
aF-469.0
aF548.0
aF-511.0
aF501.0
aF-1086.0
aF513.0
aF530.0
aF399.0
aF495.0
aF-525.0
aF-522.0
aF-488.0
aF513.0
aF554.0
aF513.0
aF441.0
aF-486.0
aF506.0
aF-499.0
aF543.0
aF-459.0
aF-534.0
aF-474.0
aF-475.0
aF-807.0
aF537.0
aF542.0
aF-594.0
aF513.0
aF537.0
aF537.0
aF483.0
aF543.0
aF550.0
aF-587.0
aF542.0
aF-559.0
aF537.0
aF385.0
aF-522.0
aF538.0
aF-951.0
aF522.0
aF543.0
aF453.0
aF554.0
aF-464.0
aF525.0
aF537.0
aF-461.0
aF525.0
aF-464.0
aF550.0
aF-510.0
aF-510.0
aF-486.0
aF-486.0
aF525.0
aF513.0
aF554.0
aF507.0
aF501.0
aF-511.0
aF405.0
aF550.0
aF519.0
aF429.0
aF-545.0
aF441.0
aF-462.0
aF518.0
aF501.0
aF-931.0
aF554.0
aF550.0
aF542.0
aF-535.0
aF537.0
aF-472.0
aF-607.0
aF-512.0
aF537.0
aF542.0
aF-524.0
aF537.0
aF554.0
aF483.0
aF-496.0
aF-1039.0
aF-476.0
aF475.0
aF489.0
aF554.0
aF417.0
aF-468.0
aF-472.0
aF-499.0
aF-530.0
aF441.0
aF542.0
aF501.0
aF501.0
aF-491.0
aF513.0
aF542.0
aF549.0
aF518.0
aF-931.0
aF471.0
aF531.0
aF410.0
aF541.0
aF525.0
aF519.0
aF465.0
aF-893.0
aF543.0
aF-475.0
aF519.0
aF525.0
aF531.0
aF483.0
aF554.0
aF-505.0
aF-496.0
aF540.0
aF501.0
aF543.0
aF543.0
aF-486.0
aF-474.0
aF381.0
aF-461.0
aF-475.0
aF550.0
aF-488.0
aF531.0
aF-486.0
aF554.0
aF538.0
aF507.0
aF525.0
aF519.0
aF531.0
aF554.0
aF-535.0
aF-583.0
aF-461.0
aF-499.0
aF-486.0
aF537.0
aF-571.0
aF531.0
aF519.0
aF507.0
aF542.0
aF537.0
aF519.0
aF501.0
aF513.0
aF543.0
aF417.0
aF-460.0
aF550.0
aF554.0
aF549.0
aF518.0
aF-553.0
aF531.0
aF453.0
aF531.0
aF549.0
aF542.0
aF417.0
aF550.0
aF525.0
aF550.0
aF-546.0
aF519.0
aF-475.0
aF519.0
aF-498.0
aF477.0
aF542.0
aF-499.0
aF537.0
aF-607.0
aF550.0
aF501.0
aF-475.0
aF517.0
aF501.0
aF219.0
aF531.0
aF-511.0
aF542.0
aF-511.0
aF-474.0
aF-474.0
aF-478.0
aF525.0
aF543.0
aF542.0
aF537.0
aF537.0
aF537.0
aF550.0
aF495.0
aF513.0
aF-498.0
aF-517.0
aF554.0
aF-506.0
aF465.0
aF-486.0
aF538.0
aF550.0
aF381.0
aF-580.0
aF542.0
aF533.0
aF531.0
aF543.0
aF-461.0
aF-510.0
aF-484.0
aF506.0
aF554.0
aF537.0
aF423.0
aF-475.0
aF537.0
aF550.0
aF554.0
aF542.0
aF537.0
aF489.0
aF549.0
aF519.0
aF530.0
aF543.0
aF543.0
aF525.0
aF525.0
aF550.0
aF550.0
aF542.0
aF531.0
aF513.0
aF554.0
aF543.0
aF-499.0
aF550.0
aF454.0
aF543.0
aF-472.0
aF543.0
aF-487.0
aF528.0
aF543.0
aF543.0
aF-494.0
aF543.0
aF-496.0
aF-474.0
aF543.0
aF525.0
aF-475.0
aF537.0
aF553.0
aF554.0
aF525.0
aF543.0
aF543.0
aF465.0
aF-467.0
aF533.0
aF-498.0
aF-486.0
aF537.0
aF-487.0
aF-494.0
aF483.0
aF-611.0
aF538.0
aF-823.0
aF-487.0
aF543.0
aF-482.0
aF513.0
aF-476.0
aF533.0
aF538.0
aF513.0
aF-486.0
aF381.0
aF489.0
aF537.0
aF537.0
aF543.0
aF453.0
aF-528.0
aF-510.0
aF501.0
aF544.0
aF-475.0
aF-641.0
aF-486.0
aF513.0
aF-475.0
aF541.0
aF554.0
aF550.0
aF525.0
aF531.0
aF-584.0
aF537.0
aF-536.0
aF-559.0
aF554.0
aF501.0
aF531.0
aF543.0
aF542.0
aF525.0
aF544.0
aF-487.0
aF442.0
aF554.0
aF550.0
aF545.0
aF-524.0
aF-487.0
aF513.0
aF546.0
aF525.0
aF514.0
aF-931.0
aF-559.0
aF543.0
aF-524.0
aF550.0
aF531.0
aF495.0
aF542.0
aF529.0
aF-478.0
aF530.0
aF525.0
aF405.0
aF554.0
aF-473.0
aF494.0
aF530.0
aF477.0
aF537.0
aF453.0
aF471.0
aF525.0
aF465.0
aF39.0
aF-486.0
aF501.0
aF477.0
aF-474.0
aF537.0
aF-462.0
aF531.0
aF-141.0
aF548.0
aF-459.0
aF537.0
aF441.0
aF537.0
aF-467.0
aF489.0
aF-846.0
aF501.0
aF-522.0
aF545.0
aF537.0
aF-475.0
aF531.0
aF-534.0
aF-536.0
aF540.0
aF-475.0
aF538.0
aF512.0
aF542.0
aF517.0
aF537.0
aF-498.0
aF542.0
aF-548.0
aF542.0
aF-1038.0
aF-536.0
aF554.0
aF537.0
aF492.0
aF525.0
aF-475.0
aF543.0
aF-496.0
aF-931.0
aF-475.0
aF537.0
aF542.0
aF459.0
aF519.0
aF-474.0
aF-498.0
aF513.0
aF-583.0
aF549.0
aF542.0
aF-690.0
aF489.0
aF-499.0
aF-488.0
aF-462.0
aF530.0
aF501.0
aF459.0
aF441.0
aF550.0
aF-668.0
aF-511.0
aF543.0
aF-522.0
aF531.0
aF-560.0
aF513.0
aF-538.0
aF530.0
aF501.0
aF-523.0
aF554.0
aF513.0
aF542.0
aF-471.0
aF441.0
aF-511.0
aF446.0
aF535.0
aF453.0
aF543.0
aF453.0
aF538.0
aF554.0
aF531.0
aF-460.0
aF543.0
aF501.0
aF543.0
aF531.0
aF554.0
aF453.0
aF546.0
aF542.0
aF-522.0
aF514.0
aF-477.0
aF531.0
aF530.0
aF537.0
aF-583.0
aF513.0
aF-586.0
aF509.0
aF538.0
aF501.0
aF-469.0
aF525.0
aF543.0
aF537.0
aF477.0
aF489.0
aF525.0
aF543.0
aF-511.0
aF-469.0
aF525.0
aF554.0
aF-475.0
aF519.0
aF-463.0
aF-487.0
aF-524.0
aF525.0
aF-499.0
aF-471.0
aF550.0
aF526.0
aF550.0
aF545.0
aF477.0
aF-486.0
aF531.0
aF501.0
aF537.0
aF-546.0
aF-461.0
aF541.0
aF-480.0
aF507.0
aF-486.0
aF525.0
aF-476.0
aF528.0
aF531.0
aF-481.0
aF-480.0
aF-486.0
aF482.0
aF-488.0
aF531.0
aF542.0
aF-559.0
aF-529.0
aF441.0
aF543.0
aF507.0
aF405.0
aF-488.0
aF550.0
aF357.0
aF351.0
aF537.0
aF525.0
aF537.0
aF-1111.0
aF501.0
aF531.0
aF-472.0
aF459.0
aF-486.0
aF542.0
aF537.0
aF-547.0
aF543.0
aF519.0
aF543.0
aF542.0
aF459.0
aF-470.0
aF-546.0
aF-487.0
aF540.0
aF531.0
aF-490.0
aF543.0
aF537.0
aF546.0
aF-486.0
aF538.0
aF-486.0
aF-511.0
aF-475.0
aF459.0
aF-474.0
aF542.0
aF507.0
aF-291.0
aF513.0
aF554.0
aF554.0
aF525.0
aF-462.0
aF-536.0
aF552.0
aF-475.0
aF537.0
aF495.0
aF-496.0
aF-488.0
aF531.0
aF538.0
aF549.0
aF-486.0
aF554.0
aF-477.0
aF553.0
aF459.0
aF531.0
aF542.0
aF-811.0
aF546.0
aF-464.0
aF554.0
aF483.0
aF-484.0
aF-467.0
aF-498.0
aF-499.0
aF537.0
aF273.0
aF537.0
aF525.0
aF537.0
aF534.0
aF537.0
aF519.0
aF-524.0
aF554.0
aF519.0
aF549.0
aF543.0
aF-623.0
aF531.0
aF-475.0
aF519.0
aF531.0
aF483.0
aF429.0
aF531.0
aF537.0
aF550.0
aF507.0
aF537.0
aF453.0
aF537.0
aF553.0
aF550.0
aF-523.0
aF537.0
aF525.0
aF537.0
aF-812.0
aF531.0
aF87.0
aF537.0
aF542.0
aF501.0
aF-480.0
aF537.0
aF-528.0
aF-573.0
aF543.0
aF-481.0
aF519.0
aF537.0
aF513.0
aF-487.0
aF553.0
aF543.0
aF-482.0
aF531.0
aF525.0
aF-486.0
aF555.0
aF-517.0
aF538.0
aF543.0
aF-500.0
aF550.0
aF554.0
aF477.0
aF-463.0
aF537.0
aF-486.0
aF-464.0
aF554.0
aF501.0
aF-951.0
aF521.0
aF525.0
aF537.0
aF542.0
aF-466.0
aF483.0
aF-488.0
aF435.0
aF525.0
aF543.0
aF550.0
aF-703.0
aF525.0
aF-487.0
aF-522.0
aF513.0
aF433.0
aF519.0
aF531.0
aF531.0
aF543.0
aF519.0
aF-559.0
aF441.0
aF453.0
aF519.0
aF525.0
aF-524.0
aF518.0
aF513.0
aF-487.0
aF519.0
aF550.0
aF-494.0
aF507.0
aF429.0
aF542.0
aF-469.0
aF-484.0
aF531.0
aF531.0
aF-514.0
aF489.0
aF369.0
aF-487.0
aF501.0
aF530.0
aF537.0
aF554.0
aF554.0
aF465.0
aF554.0
aF537.0
aF554.0
aF519.0
aF-510.0
aF369.0
aF513.0
aF-490.0
aF410.0
aF543.0
aF-475.0
aF-493.0
aF531.0
aF519.0
aF477.0
aF501.0
aF-57.0
aF501.0
aF525.0
aF507.0
aF-543.0
aF537.0
aF-480.0
aF554.0
aF-535.0
aF438.0
aF-547.0
aF-487.0
aF531.0
aF465.0
aF-931.0
aF453.0
aF-479.0
aF-536.0
aF550.0
aF-461.0
aF-475.0
aF513.0
aF554.0
aF554.0
aF-545.0
aF525.0
aF-486.0
aF-483.0
aF543.0
aF517.0
aF501.0
aF-468.0
aF531.0
aF554.0
aF531.0
aF537.0
aF531.0
aF-484.0
aF538.0
aF-475.0
aF-487.0
aF-527.0
aF543.0
aF537.0
aF537.0
aF465.0
aF550.0
aF519.0
aF483.0
aF-656.0
aF554.0
aF-475.0
aF537.0
aF495.0
aF-459.0
aF537.0
aF494.0
aF544.0
aF-475.0
aF541.0
aF-534.0
aF543.0
aF550.0
aF537.0
aF-514.0
aF495.0
aF543.0
aF519.0
aF514.0
aF494.0
aF554.0
aF501.0
aF493.0
aF550.0
aF537.0
aF543.0
aF545.0
aF493.0
aF-505.0
aF-547.0
aF507.0
aF489.0
aF535.0
aF405.0
aF542.0
aF537.0
aF-931.0
aF-504.0
aF550.0
aF-479.0
aF537.0
aF-464.0
aF526.0
aF-475.0
aF545.0
aF531.0
aF483.0
aF513.0
aF-469.0
aF526.0
aF554.0
aF550.0
aF525.0
aF489.0
aF513.0
aF489.0
aF507.0
aF-559.0
aF-487.0
aF542.0
aF519.0
aF525.0
aF543.0
aF-464.0
aF519.0
aF519.0
aF-470.0
aF546.0
aF537.0
aF358.0
aF423.0
aF-488.0
aF554.0
aF417.0
aF-468.0
aF531.0
aF525.0
aF147.0
aF525.0
aF519.0
aF546.0
aF-488.0
aF513.0
aF537.0
aF513.0
aF-475.0
aF-482.0
aF554.0
aF554.0
aF554.0
aF546.0
aF531.0
aF-464.0
aF505.0
aF554.0
aF-468.0
aF530.0
aF538.0
aF542.0
aF506.0
aF-488.0
aF537.0
aF-931.0
aF-498.0
aF513.0
aF525.0
aF531.0
aF541.0
aF-468.0
aF542.0
aF351.0
aF489.0
aF-475.0
aF386.0
aF531.0
aF-980.0
aF-503.0
aF-511.0
aF-594.0
aF403.0
aF506.0
aF530.0
aF-528.0
aF537.0
aF554.0
aF543.0
aF537.0
aF526.0
aF533.0
aF531.0
aF441.0
aF-487.0
aF-523.0
aF554.0
aF471.0
aF-474.0
aF554.0
aF-477.0
aF501.0
aF-486.0
aF489.0
aF537.0
aF543.0
aF531.0
aF-487.0
aF-482.0
aF489.0
aF513.0
aF525.0
aF537.0
aF543.0
aF489.0
aF537.0
asS'reward'
p3
(lp4
I-493
aI-485
aI-486
aI-485
aI-485
aI-485
aI-488
aI-485
aI-485
aI-485
aI-485
aI-485
aI-485
aI-485
aI-486
aI-485
aI-485
aI-485
aI-485
aI-485
aI-485
aI-485
aI-487
aI-485
aI-485
aI-485
aI-485
aI-485
aI-486
aI-495
aI-485
aI-487
aI-485
aI-485
aI-487
aI-487
aI-495
aI-485
aI-485
aI-487
aI-486
aI-485
aI-485
aI-485
aI-485
aI-485
aI-485
aI-486
aI-485
aI-487
aI-486
aI-485
aI-485
aI-485
aI-485
aI-485
aI-486
aI-485
aI-485
aI-486
aI-485
aI-485
aI-485
aI-485
aI-485
aI-485
aI-485
aI-485
aI-485
aI-485
aI-485
aI-487
aI-478
aI-485
aI-485
aI-487
aI-485
aI-485
aI-486
aI-495
aI-485
aI-485
aI-485
aI-485
aI-485
aI-487
aI-485
aI-486
aI5044
aI-487
aI-485
aI-485
aI-485
aI-485
aI-485
aI-485
aI-485
aI-485
aI-467
aI-485
aI-485
aI-485
aI-485
aI-486
aI-487
aI-485
aI-485
aI-487
aI-487
aI-485
aI-485
aI-485
aI-485
aI-485
aI-486
aI-485
aI-485
aI-485
aI-487
aI-486
aI-485
aI-486
aI-485
aI-488
aI-485
aI-485
aI-485
aI-487
aI-485
aI-485
aI-485
aI5044
aI-485
aI-485
aI-488
aI-485
aI-486
aI-485
aI-485
aI-485
aI-486
aI-485
aI-485
aI-485
aI-487
aI-485
aI-485
aI-485
aI-485
aI-485
aI-485
aI-486
aI-485
aI-485
aI-486
aI-486
aI-485
aI-485
aI-485
aI-487
aI-485
aI-486
aI-485
aI-485
aI-485
aI-485
aI-485
aI-488
aI-485
aI-485
aI-485
aI-485
aI-485
aI-487
aI-485
aI-487
aI-485
aI-485
aI-485
aI-487
aI-485
aI-485
aI-486
aI-485
aI-485
aI-488
aI-485
aI-485
aI-485
aI-485
aI-485
aI-486
aI-485
aI-485
aI-485
aI-485
aI-485
aI-485
aI-485
aI-485
aI-485
aI-485
aI-485
aI-487
aI-485
aI-486
aI-487
aI-485
aI-487
aI-485
aI-485
aI-485
aI-487
aI-485
aI-485
aI5045
aI-485
aI-485
aI-485
aI-485
aI-485
aI-487
aI-485
aI-487
aI-485
aI-485
aI-485
aI-485
aI-485
aI-487
aI-485
aI-485
aI-485
aI-485
aI-485
aI-485
aI-485
aI-485
aI-487
aI-486
aI-487
aI-485
aI-485
aI-486
aI-485
aI-487
aI-485
aI-485
aI5045
aI-485
aI-485
aI-487
aI-487
aI-486
aI-486
aI-487
aI-485
aI-485
aI-487
aI-487
aI-486
aI-487
aI-485
aI-486
aI-485
aI-485
aI-485
aI-485
aI-488
aI-485
aI-485
aI-485
aI-486
aI-487
aI-485
aI-487
aI-468
aI-496
aI-487
aI-485
aI-485
aI-487
aI-485
aI-488
aI-485
aI-486
aI-485
aI-485
aI-485
aI-469
aI-485
aI-485
aI-485
aI-485
aI-485
aI-487
aI-485
aI-486
aI-485
aI-485
aI-485
aI-487
aI-467
aI-485
aI-485
aI-485
aI-487
aI-485
aI-487
aI-488
aI-485
aI-485
aI-485
aI-487
aI-485
aI-488
aI-485
aI-485
aI-487
aI-485
aI-485
aI-485
aI-485
aI-485
aI-485
aI-485
aI-486
aI-485
aI-487
aI-485
aI-485
aI-487
aI-467
aI-487
aI-485
aI-485
aI-487
aI-485
aI-485
aI-486
aI-487
aI-487
aI-485
aI-485
aI-486
aI-485
aI-487
aI-485
aI-485
aI-486
aI-485
aI-485
aI-487
aI-487
aI-485
aI-487
aI-485
aI-485
aI-485
aI-488
aI-486
aI-487
aI-485
aI-467
aI-488
aI-485
aI-485
aI-485
aI-485
aI-485
aI-487
aI-488
aI-487
aI-485
aI-485
aI-485
aI-485
aI-485
aI-485
aI-485
aI-485
aI-485
aI-485
aI-485
aI-467
aI-478
aI-487
aI-485
aI-487
aI-485
aI-485
aI-486
aI-485
aI-486
aI-486
aI-485
aI-467
aI-485
aI-485
aI-485
aI-487
aI-487
aI-485
aI-485
aI-485
aI-486
aI-485
aI-485
aI-485
aI-485
aI-485
aI-485
aI-487
aI-487
aI-485
aI-485
aI-485
aI-485
aI-485
aI-485
aI-485
aI-485
aI-485
aI-485
aI-485
aI-467
aI-485
aI-485
aI-485
aI-485
aI-485
aI-485
aI-487
aI-467
aI-485
aI-485
aI-485
aI-487
aI-485
aI5041
aI-485
aI-485
aI-485
aI-485
aI-485
aI-485
aI-485
aI-485
aI-487
aI-485
aI-485
aI-485
aI-485
aI-485
aI-485
aI-485
aI-485
aI-485
aI-485
aI-496
aI-487
aI-487
aI-485
aI-468
aI-485
aI-485
aI-485
aI-485
aI-485
aI-485
aI-485
aI-485
aI-485
aI-487
aI-485
aI-485
aI-487
aI-485
aI-486
aI-485
aI-485
aI-487
aI-468
aI-485
aI-485
aI-485
aI-485
aI-486
aI-485
aI-485
aI-485
aI-487
aI-485
aI-485
aI-485
aI-487
aI-485
aI-485
aI-485
aI-485
aI-485
aI-485
aI-486
aI-469
aI-485
aI-485
aI-485
aI-485
aI-467
aI-487
aI-485
aI-485
aI-485
aI-485
aI-485
aI-485
aI-488
aI-485
aI-487
aI-485
aI-487
aI-485
aI-485
aI-485
aI-486
aI-485
aI-485
aI-485
aI-485
aI-487
aI-485
aI-485
aI-486
aI-485
aI-487
aI-487
aI-485
aI-487
aI-487
aI-485
aI-487
aI-485
aI-485
aI-485
aI-486
aI-485
aI-485
aI-487
aI-485
aI-485
aI-486
aI-488
aI-485
aI-485
aI-485
aI-488
aI-485
aI-485
aI-485
aI-485
aI-487
aI-486
aI-485
aI-486
aI-485
aI-485
aI-485
aI-486
aI-485
aI-485
aI-486
aI-485
aI-485
aI-485
aI-485
aI-485
aI5044
aI-485
aI-485
aI-487
aI-485
aI-486
aI-485
aI-485
aI-485
aI-487
aI-485
aI-487
aI-485
aI-485
aI-486
aI-472
aI-485
aI-485
aI-486
aI-487
aI-485
aI-496
aI-485
aI-485
aI-485
aI-485
aI-485
aI-485
aI-485
aI-485
aI-468
aI-485
aI-485
aI-485
aI-485
aI-485
aI-487
aI-485
aI-485
aI-485
aI-486
aI-487
aI-485
aI-485
aI-487
aI-487
aI-485
aI-485
aI-485
aI-485
aI-496
aI-485
aI-485
aI-485
aI-485
aI-487
aI-487
aI-485
aI-487
aI-485
aI-485
aI-485
aI-485
aI-485
aI-486
aI-485
aI-485
aI-485
aI-487
aI-485
aI-485
aI-487
aI-485
aI-485
aI-485
aI-485
aI-486
aI-467
aI-485
aI-485
aI-485
aI-467
aI-485
aI-485
aI-487
aI-485
aI-486
aI-485
aI-487
aI-485
aI-485
aI-485
aI-485
aI-485
aI-485
aI-485
aI-486
aI-485
aI-485
aI-485
aI-485
aI-485
aI-485
aI-487
aI-485
aI-485
aI-487
aI-485
aI-487
aI-485
aI-485
aI-487
aI-485
aI-485
aI-485
aI-485
aI-485
aI-485
aI-487
aI-485
aI-485
aI-485
aI-486
aI-495
aI-485
aI-485
aI-485
aI-485
aI-487
aI-485
aI-485
aI5044
aI-485
aI-485
aI-485
aI-485
aI-485
aI-486
aI-486
aI-486
aI-485
aI-485
aI-485
aI-485
aI-461
aI-485
aI-485
aI-485
aI-485
aI-485
aI-485
aI-485
aI-486
aI-485
aI-485
aI-485
aI-486
aI-487
aI-485
aI-485
aI-472
aI-485
aI-485
aI-485
aI-486
aI-485
aI-486
aI-485
aI-485
aI-486
aI-485
aI-485
aI-485
aI-485
aI-485
aI-485
aI-485
aI-485
aI-485
aI-485
aI-485
aI-485
aI-485
aI-487
aI-485
aI-485
aI-487
aI-485
aI-485
aI-485
aI-486
aI-485
aI-485
aI-485
aI-485
aI-485
aI-485
aI-488
aI-485
aI-486
aI-485
aI-485
aI-486
aI-485
aI-487
aI-485
aI-486
aI-488
aI-485
aI-485
aI-485
aI5044
aI-485
aI-487
aI-485
aI-487
aI5045
aI-487
aI-485
aI-485
aI-485
aI-487
aI-485
aI-485
aI-485
aI-487
aI-487
aI-487
aI-485
aI-485
aI-485
aI-485
aI-487
aI-485
aI-485
aI-487
aI-485
aI-485
aI-487
aI-485
aI-485
aI-487
aI-485
aI-485
aI-485
aI-485
aI-485
aI-485
aI-485
aI-485
aI-487
aI-485
aI-486
aI-485
aI-487
aI-487
aI-487
aI-487
aI-485
aI-485
aI-487
aI-485
aI-485
aI-485
aI-485
aI-485
aI-485
aI-485
aI-487
aI-485
aI-461
aI-487
aI-485
aI-487
aI-487
aI-485
aI-487
aI-487
aI-485
aI-485
aI-469
aI-485
aI-485
aI-487
aI-485
aI-486
aI-485
aI-485
aI-487
aI-485
aI-485
aI-485
aI-485
aI5025
aI-485
aI-485
aI-485
aI-485
aI-485
aI-485
aI-485
aI-485
aI-487
aI-487
aI-485
aI-485
aI-487
aI-485
aI-485
aI-467
aI-485
aI-485
aI-485
aI-485
aI-485
aI-485
aI-485
aI-485
aI-485
aI-485
aI-485
aI-485
aI-485
aI-487
aI-485
aI-485
aI-487
aI-487
aI-487
aI-487
aI-485
aI-485
aI-485
aI-485
aI-487
aI-485
aI-485
aI-485
aI-485
aI-485
aI-487
aI-485
aI-487
aI-486
aI-485
aI-485
aI-487
aI-487
aI-485
aI-485
aI-487
aI-485
aI-485
aI-485
aI-485
aI-487
aI-488
aI5044
aI5043
aI-485
aI-485
aI-487
aI-485
aI-485
aI-485
aI-485
aI-485
aI-485
aI-485
aI5045
aI-485
aI-485
aI-485
aI-485
aI-487
aI-485
aI-487
aI-485
aI-467
aI-485
aI-485
aI-485
aI-485
aI-485
aI-485
aI-485
aI-485
aI-485
aI-485
aI-485
aI-485
aI-485
aI-485
aI-485
aI-485
aI-485
aI-485
aI-487
aI-485
aI-485
aI-485
aI-487
aI-458
aI-485
aI-485
aI-485
aI-485
aI-485
aI-486
aI-485
aI-485
aI-485
aI-485
aI5030
aI-487
aI-485
aI-485
aI-487
aI-485
aI-485
aI-485
aI-485
aI-485
aI-485
aI-485
aI-485
aI-485
aI-485
aI-485
aI-485
aI-485
aI5045
aI-485
aI-487
aI-485
aI-487
aI-487
aI-485
aI-485
aI-485
aI-485
aI-487
aI-485
aI-485
aI-485
aI-485
aI-461
aI-485
aI-485
aI-485
aI-485
aI-485
aI-487
aI-485
aI-485
aI-487
aI-487
aI-485
aI-487
aI-487
aI-485
aI-485
aI-485
aI-485
aI-487
aI-485
aI-485
aI-485
aI-487
aI-487
aI-487
aI-485
aI-485
aI-485
aI-485
aI-485
aI-487
aI-485
aI-485
aI-485
aI-485
aI-485
aI-485
aI-485
aI-485
aI-485
aI-485
aI-487
aI-485
aI-487
aI-487
aI-485
aI-488
aI-487
aI-487
aI-485
aI-485
aI-485
aI-487
aI-485
aI-487
aI-487
aI-485
aI-485
aI-485
aI-485
aI-485
aI-487
aI-487
aI-487
aI-485
aI-485
aI-485
aI-485
aI-485
aI-461
aI-487
aI-485
aI-485
aI-485
aI-485
aI-485
aI-485
aI-485
aI-487
aI-485
aI-487
aI-485
aI-485
aI-501
aI-485
aI-485
aI-485
aI-487
aI-485
aI-485
aI-485
aI-485
aI-485
aI-485
aI-487
aI-485
aI-485
aI-485
aI-485
aI-485
aI-485
aI-485
aI-485
aI-485
aI-485
aI-487
aI-485
aI-485
aI-485
aI-485
aI-485
aI-485
aI-485
aI-485
aI-485
aI-485
aI-485
aI-485
aI-487
aI-485
aI-486
aI-485
aI-485
aI-485
aI-485
aI-485
aI-485
aI-485
aI-485
aI-485
aI-485
aI-487
aI-487
aI-487
aI-487
aI-485
aI-485
aI-485
aI-485
aI-485
aI-485
aI-485
aI-497
aI-485
aI-485
aI-485
aI-485
aI-487
aI-485
aI-487
aI-487
aI-487
aI-487
aI-487
aI-487
aI-485
aI-461
aI-485
aI-485
aI-485
aI-467
aI-485
aI-485
aI-485
aI-487
aI-487
aI-485
aI-485
aI-485
aI-477
aI-487
aI-471
aI-485
aI-485
aI-485
aI-485
aI-485
aI-485
aI-487
aI-487
aI-485
aI-485
aI-487
aI-485
aI-487
aI-487
aI-487
aI-485
aI-485
aI-485
aI-485
aI-485
aI-485
aI-485
aI-488
aI-485
aI-485
aI-485
aI-485
aI-487
aI-485
aI-487
aI-487
aI-485
aI-485
aI-485
aI-485
aI-485
aI-485
aI-487
aI-485
aI-487
aI-485
aI-485
aI-485
aI-485
aI-485
aI-485
aI-485
aI-487
aI-485
aI-487
aI-487
aI-485
aI-485
aI-485
aI-487
aI-487
aI-485
aI-485
aI-485
aI-485
aI-485
aI-485
aI-485
aI-485
aI-487
aI-485
aI-485
aI-485
aI-485
aI-485
aI-487
aI-485
aI-485
aI-485
aI-485
aI-485
aI-487
aI-485
aI-485
aI-1003
aI-487
aI-485
aI-485
aI-487
aI-487
aI-487
aI-485
aI-485
aI-485
aI-485
aI-485
aI-485
aI-485
aI-485
aI-485
aI-471
aI5042
aI-487
aI-487
aI-485
aI-485
aI-487
aI-487
aI-485
aI-487
aI-485
aI-485
aI-487
aI-481
aI-485
aI-485
aI-485
aI-487
aI-485
aI-485
aI-485
aI-485
aI-485
aI-485
aI-485
aI-485
aI-487
aI-485
aI-485
aI-485
aI-485
aI-485
aI-485
aI-485
aI-485
aI-485
aI-485
aI-487
aI-485
aI-485
aI-487
aI-485
aI-485
aI-487
aI-485
aI-485
aI-485
aI5045
aI-487
aI-485
aI-485
aI-485
aI-485
aI-485
aI-497
aI-485
aI-485
aI-485
aI-471
aI-485
aI-485
aI-485
aI-485
aI-485
aI-487
aI-485
aI-487
aI-485
aI-487
aI-485
aI-498
aI-485
aI-485
aI-485
aI-485
aI-485
aI-487
aI-471
aI-485
aI-485
aI-485
aI-485
aI-485
aI-485
aI-485
aI-487
aI-487
aI-485
aI-485
aI-485
aI-487
aI-487
aI-485
aI-485
aI-471
aI-485
aI-485
aI-485
aI-485
aI5039
aI-485
aI-487
aI-487
aI-485
aI-487
aI-487
aI-485
aI-485
aI-485
aI-485
aI-485
aI5045
aI-485
aI-487
aI-487
aI-487
aI-485
aI-485
aI-485
aI-485
aI-485
aI-485
aI-488
aI-485
aI-485
aI-485
aI-485
aI-485
aI-485
aI-487
aI-485
aI-485
aI-485
aI-485
aI-485
aI-485
aI-485
aI-485
aI-485
aI-485
aI-485
aI-487
aI-488
aI-485
aI-485
aI-485
aI-485
aI-461
aI-485
aI-485
aI-485
aI-485
aI-485
aI-487
aI-487
aI-485
aI5045
aI5045
aI-485
aI-485
aI-485
aI-485
aI-485
aI-485
aI-487
aI-485
aI-487
aI-487
aI-485
aI-487
aI-485
aI-487
aI-485
aI-485
aI-487
aI-487
aI-487
aI-485
aI-485
aI-487
aI-485
aI-487
aI-485
aI-485
aI5045
aI5037
aI-487
aI-485
aI-487
aI-487
aI-485
aI-502
aI-487
aI-487
aI-485
aI-487
aI-485
aI-616
aI4895
aI-511
aI-473
aI5045
aI5045
aI5045
aI-497
aI4481
aI-498
aI-473
aI-581
aI4655
aI4937
aI5043
aI-473
aI-473
aI-485
aI5040
aI-486
aI5044
aI-478
aI5032
aI-479
aI5021
aI5032
aI5040
aI4989
aI5027
aI5044
aI-473
aI-499
aI5040
aI4932
aI-475
aI5032
aI-473
aI-546
aI-473
aI-497
aI-504
aI5037
aI-471
aI5040
aI5032
aI-524
aI5027
aI-482
aI5021
aI5044
aI-535
aI5015
aI4984
aI-530
aI-485
aI4949
aI4745
aI5028
aI-717
aI5025
aI5009
aI-485
aI4985
aI-474
aI5021
aI-504
aI4996
aI5000
aI5027
aI-486
aI5021
aI5021
aI5027
aI4982
aI4991
aI4859
aI5015
aI4973
aI-469
aI-484
aI4952
aI5044
aI5036
aI5044
aI4997
aI5033
aI5032
aI5027
aI5045
aI5021
aI5033
aI-520
aI-496
aI5032
aI5027
aI-595
aI-486
aI-475
aI5036
aI5015
aI-474
aI5027
aI-471
aI5044
aI-565
aI5040
aI5028
aI5015
aI-1036
aI5015
aI5025
aI-570
aI5015
aI-486
aI-570
aI-473
aI4889
aI5032
aI5033
aI5040
aI5015
aI4781
aI5033
aI-570
aI5003
aI-487
aI4895
aI5015
aI-459
aI5033
aI4985
aI-535
aI5040
aI5021
aI5003
aI5007
aI5021
aI4919
aI-510
aI5033
aI5031
aI4949
aI-511
aI4996
aI-562
aI5040
aI-498
aI5032
aI-472
aI-469
aI5009
aI5015
aI-486
aI-458
aI5044
aI5033
aI4931
aI5027
aI-470
aI5027
aI5020
aI4979
aI-486
aI-532
aI5021
aI-524
aI-535
aI4989
aI5015
aI5015
aI5044
aI-485
aI4245
aI5015
aI-471
aI5021
aI-493
aI5015
aI5003
aI-546
aI4985
aI5027
aI4913
aI-511
aI5015
aI5003
aI5021
aI4979
aI5027
aI5044
aI4119
aI5027
aI-487
aI-486
aI-487
aI-485
aI4943
aI-486
aI5044
aI-487
aI-486
aI4991
aI-501
aI4991
aI-523
aI5023
aI5027
aI5009
aI5044
aI5011
aI4535
aI5030
aI-535
aI5032
aI5033
aI5021
aI4960
aI-499
aI4039
aI-474
aI4883
aI-474
aI5021
aI5027
aI5032
aI5033
aI4973
aI-474
aI5015
aI-481
aI4979
aI-583
aI5021
aI5020
aI5027
aI4349
aI5009
aI5003
aI-561
aI5021
aI5033
aI-536
aI4991
aI-485
aI4919
aI5033
aI5044
aI5004
aI4967
aI5033
aI-500
aI-582
aI-498
aI-548
aI4991
aI-643
aI5027
aI4931
aI-486
aI-498
aI5031
aI-510
aI-485
aI5032
aI4967
aI5003
aI5021
aI4253
aI-499
aI5040
aI4907
aI5003
aI5035
aI-488
aI-524
aI5021
aI-485
aI5039
aI5035
aI4991
aI4991
aI-583
aI5042
aI-469
aI4961
aI5009
aI5032
aI5021
aI5033
aI4984
aI5027
aI5040
aI5027
aI5003
aI-488
aI5040
aI-583
aI-499
aI5028
aI5027
aI5033
aI-571
aI5021
aI5040
aI5009
aI5044
aI4985
aI4876
aI5021
aI4943
aI-485
aI4979
aI-485
aI-488
aI-582
aI-483
aI5015
aI-497
aI4985
aI-480
aI5020
aI4859
aI-546
aI4985
aI5032
aI-472
aI-1292
aI5032
aI5033
aI5033
aI5021
aI-464
aI-469
aI5030
aI5021
aI4301
aI-460
aI-498
aI5003
aI-494
aI5032
aI5009
aI5003
aI5033
aI5040
aI5021
aI5027
aI4643
aI-472
aI4979
aI5025
aI-510
aI4781
aI-488
aI5033
aI5044
aI5037
aI-500
aI5015
aI5013
aI5033
aI-522
aI5009
aI4721
aI5028
aI-475
aI5044
aI5033
aI-487
aI-485
aI5044
aI4997
aI-485
aI5029
aI-474
aI-462
aI-475
aI-552
aI5033
aI-485
aI4984
aI4943
aI4979
aI4979
aI5015
aI5021
aI4979
aI4985
aI5031
aI5021
aI-511
aI5003
aI4979
aI-522
aI-498
aI4991
aI4973
aI5032
aI5044
aI5021
aI4996
aI-485
aI-643
aI5009
aI-473
aI5027
aI4984
aI-473
aI-461
aI5027
aI-474
aI5033
aI-461
aI5015
aI-485
aI5023
aI5015
aI5039
aI4912
aI-458
aI5027
aI4979
aI5044
aI5027
aI4991
aI5027
aI4997
aI5021
aI4715
aI-1183
aI5020
aI-600
aI4925
aI5022
aI5040
aI-486
aI-496
aI4996
aI4991
aI5044
aI4979
aI4991
aI-546
aI5027
aI4991
aI5015
aI5034
aI5040
aI5015
aI4997
aI5028
aI-488
aI-485
aI5032
aI5015
aI5027
aI5015
aI5027
aI5027
aI5040
aI5021
aI5020
aI-529
aI-559
aI5027
aI4991
aI-1340
aI5043
aI4997
aI5027
aI4997
aI5015
aI-487
aI-544
aI-498
aI-490
aI4985
aI-485
aI4967
aI5033
aI4069
aI5040
aI5033
aI5027
aI4985
aI5021
aI4883
aI-750
aI5044
aI5027
aI5044
aI4973
aI4955
aI-486
aI5027
aI-470
aI-485
aI-460
aI4931
aI5003
aI4964
aI5033
aI5032
aI5027
aI4619
aI4973
aI4997
aI5033
aI5028
aI5035
aI5003
aI5044
aI5021
aI5015
aI5027
aI5021
aI5027
aI-498
aI-473
aI-485
aI5044
aI5021
aI5015
aI5027
aI-1027
aI5027
aI-484
aI-485
aI4979
aI5033
aI-485
aI-494
aI5023
aI5044
aI5009
aI5044
aI-473
aI5044
aI5044
aI5015
aI5033
aI4952
aI5021
aI-473
aI4937
aI5003
aI5001
aI5040
aI-498
aI5033
aI-485
aI4919
aI4991
aI-488
aI-529
aI-474
aI-462
aI5033
aI5035
aI-500
aI-522
aI5003
aI-534
aI-1183
aI5027
aI5030
aI5040
aI5039
aI5034
aI5027
aI5032
aI4918
aI-751
aI5020
aI5028
aI5027
aI-488
aI5039
aI5043
aI-535
aI5044
aI-491
aI-497
aI5009
aI4069
aI5027
aI5009
aI5033
aI4991
aI5009
aI-461
aI-466
aI-811
aI5028
aI-498
aI4987
aI5032
aI4979
aI-485
aI5015
aI5010
aI4961
aI5027
aI-470
aI-473
aI4991
aI5003
aI-499
aI5038
aI5032
aI5027
aI-486
aI5009
aI-491
aI-512
aI5027
aI5040
aI5021
aI-487
aI-503
aI5027
aI5032
aI-493
aI5020
aI-697
aI-522
aI-472
aI5040
aI4991
aI5033
aI5027
aI-497
aI4967
aI4949
aI5027
aI5031
aI4939
aI-486
aI5040
aI5021
aI5027
aI5027
aI-487
aI5009
aI5003
aI5044
aI4931
aI5011
aI5003
aI-511
aI-480
aI-477
aI-474
aI-476
aI5044
aI4907
aI-532
aI5009
aI-506
aI-541
aI-471
aI-559
aI5015
aI-514
aI5015
aI4943
aI-467
aI4997
aI4912
aI-474
aI-471
aI-498
aI4967
aI-496
aI-512
aI-472
aI5031
aI5015
aI5033
aI4972
aI-485
aI-534
aI5040
aI5027
aI-535
aI-477
aI5021
aI5033
aI5040
aI5009
aI5032
aI5040
aI-514
aI-486
aI5035
aI4991
aI-564
aI-1244
aI-472
aI-547
aI5027
aI5033
aI5009
aI5021
aI-629
aI-486
aI5032
aI5015
aI-486
aI4967
aI4973
aI-485
aI4979
aI-485
aI4895
aI5009
aI5032
aI-486
aI-524
aI5027
aI5028
aI5022
aI4976
aI5027
aI5015
aI-512
aI4973
aI5044
aI5044
aI5038
aI-483
aI4745
aI-522
aI5033
aI5032
aI-487
aI4913
aI5033
aI5032
aI5015
aI4967
aI5027
aI-489
aI5044
aI5021
aI4943
aI4960
aI5027
aI5003
aI5020
aI-527
aI5025
aI5038
aI-486
aI5027
aI4967
aI-488
aI-473
aI5037
aI-505
aI5033
aI-489
aI4985
aI-570
aI5033
aI5040
aI4991
aI5003
aI5003
aI5023
aI-501
aI4997
aI4967
aI4955
aI-473
aI5027
aI4955
aI5003
aI5035
aI-547
aI-486
aI5015
aI5033
aI5033
aI5044
aI5009
aI-496
aI5033
aI4997
aI5033
aI-1280
aI5027
aI4888
aI5003
aI5027
aI5003
aI5037
aI4853
aI5032
aI5015
aI4991
aI4943
aI-486
aI4985
aI5032
aI-534
aI5027
aI5027
aI-534
aI5003
aI5044
aI5044
aI5043
aI5033
aI4979
aI5021
aI5028
aI-552
aI-512
aI4069
aI5033
aI5009
aI4955
aI5015
aI5044
aI5033
aI5033
aI-517
aI4955
aI4980
aI4919
aI5003
aI4859
aI4991
aI-547
aI-485
aI5040
aI5044
aI-499
aI5003
aI5027
aI5043
aI-486
aI5019
aI4971
aI-486
aI4069
aI5044
aI5044
aI5015
aI4985
aI5022
aI5044
aI-486
aI4943
aI5015
aI5015
aI-481
aI-529
aI5044
aI-488
aI5044
aI4997
aI5044
aI4984
aI5044
aI5039
aI-535
aI-534
aI-499
aI-474
aI-528
aI5027
aI5031
aI-482
aI-499
aI5032
aI5009
aI5027
aI-509
aI4949
aI5021
aI4996
aI-508
aI5027
aI-468
aI4955
aI-468
aI5033
aI5027
aI-471
aI5009
aI4949
aI5021
aI5003
aI4991
aI-482
aI4985
aI5027
aI4069
aI5003
aI4944
aI5015
aI5015
aI5021
aI-499
aI5030
aI4069
aI5033
aI-493
aI5027
aI-475
aI4996
aI-489
aI-506
aI-617
aI4967
aI5044
aI5020
aI5026
aI-469
aI5033
aI5040
aI-540
aI-501
aI5033
aI5033
aI5020
aI5020
aI-491
aI5027
aI5033
aI5009
aI-510
aI5009
aI-511
aI-520
aI-487
aI-509
aI5032
aI-475
aI5021
aI4997
aI4877
aI5033
aI5033
aI-478
aI5008
aI4709
aI-489
aI5035
aI5039
aI5033
aI4999
aI5027
aI-498
aI4991
aI5021
aI5027
aI5003
aI-486
aI4991
aI5009
aI5027
aI-497
aI4871
aI-486
aI-498
aI-485
aI-496
aI5027
aI-542
aI5021
aI-493
aI5003
aI-485
aI5021
aI4985
aI5027
aI-485
aI5042
aI-502
aI5027
aI5003
aI-486
aI5043
aI-498
aI-547
aI5021
aI5027
aI4973
aI4846
aI5021
aI-485
aI5044
aI4979
aI-485
aI-522
aI-535
aI5003
aI5025
aI5003
aI4967
aI4967
aI5040
aI-522
aI5015
aI5044
aI5044
aI5006
aI5027
aI5003
aI5020
aI5021
aI4673
aI5024
aI-500
aI5009
aI5021
aI-1351
aI5040
aI-486
aI5032
aI5044
aI5032
aI4991
aI5021
aI-547
aI4956
aI-485
aI5033
aI-498
aI5016
aI5003
aI5028
aI5033
aI5025
aI-485
aI5033
aI-512
aI-503
aI5044
aI5021
aI5044
aI-546
aI5044
aI4703
aI5044
aI-475
aI-486
aI4069
aI5021
aI-529
aI5038
aI-485
aI-476
aI-489
aI-547
aI-486
aI-485
aI5033
aI-619
aI5044
aI5015
aI5021
aI-605
aI5015
aI5040
aI5009
aI-572
aI5021
aI5020
aI-551
aI-472
aI4069
aI5040
aI5044
aI-581
aI-511
aI-485
aI-490
aI5039
aI5040
aI-500
aI4943
aI-487
aI5033
aI-486
aI5028
aI4979
aI5033
aI5027
aI5021
aI5027
aI5003
aI-486
aI5044
aI5032
aI5028
aI-475
aI5021
aI5032
aI5027
aI5040
aI5039
aI4991
aI-481
aI4619
aI4931
aI5003
aI5044
aI-492
aI-485
aI4997
aI-595
aI5008
aI-535
aI4979
aI4991
aI-460
aI-548
aI5033
aI-473
aI-471
aI-536
aI-499
aI5028
aI4979
aI4884
aI5032
aI5003
aI5027
aI5015
aI5009
aI5009
aI-486
aI5008
aI4943
aI5027
aI5027
aI-473
aI4943
aI-483
aI5040
aI5032
aI-487
aI5027
aI5021
aI-488
aI5021
aI5027
aI4919
aI5027
aI5023
aI5040
aI-498
aI-486
aI4949
aI-475
aI-487
aI-503
aI5031
aI5039
aI-485
aI-485
aI5003
aI-474
aI5040
aI5040
aI-488
aI5043
aI-485
aI4979
aI-492
aI-571
aI-486
aI5027
aI-486
aI5003
aI5015
aI5032
aI-499
aI-570
aI4985
aI-522
aI4967
aI-533
aI-500
aI5027
aI-488
aI-474
aI5037
aI5027
aI5003
aI5033
aI-589
aI5021
aI-518
aI5040
aI-487
aI5021
aI-511
aI5021
aI4943
aI5033
aI4979
aI5033
aI4996
aI5015
aI4997
aI-488
aI5043
aI4967
aI5021
aI-511
aI-514
aI4069
aI5027
aI5040
aI4991
aI4913
aI5027
aI-512
aI5044
aI-462
aI4979
aI4997
aI4984
aI5028
aI-486
aI5033
aI5019
aI5033
aI-461
aI5003
aI-535
aI-497
aI-460
aI5027
aI5015
aI-485
aI-485
aI4900
aI5033
aI5044
aI5015
aI-501
aI4991
aI-472
aI5009
aI-488
aI-511
aI5032
aI-472
aI4991
aI5009
aI5044
aI5033
aI5015
aI-503
aI5044
aI4901
aI-474
aI5033
aI-500
aI5009
aI4943
aI5044
aI4907
aI5040
aI-471
aI5027
aI4979
aI4961
aI-511
aI-486
aI-485
aI4817
aI-476
aI5040
aI5033
aI5032
aI-485
aI5007
aI-833
aI4991
aI-461
aI-686
aI5025
aI4907
aI-458
aI4069
aI-608
aI4907
aI5040
aI4979
aI5021
aI5021
aI5015
aI4997
aI4895
aI4991
aI4217
aI5033
aI5021
aI5032
aI-461
aI-568
aI-488
aI-486
aI-796
aI5040
aI5040
aI4937
aI4991
aI5021
aI-485
aI-469
aI4997
aI-485
aI5015
aI5003
aI5021
aI4973
aI5015
aI5021
aI5021
aI-606
aI4991
aI4949
aI5021
aI-462
aI5023
aI5044
aI4985
aI5012
aI5044
aI5021
aI-571
aI5045
aI5027
aI5011
aI5027
aI-487
aI-644
aI-490
aI-515
aI-714
aI-528
aI-487
aI4991
aI4988
aI5027
aI-477
aI5033
aI-511
aI5033
aI-534
aI-491
aI-535
aI-473
aI4997
aI5015
aI5027
aI-1147
aI5016
aI5027
aI5037
aI-485
aI5044
aI4977
aI5044
aI4991
aI5040
aI-487
aI-481
aI-480
aI5040
aI4859
aI-511
aI-485
aI5044
aI5027
aI4991
aI5020
aI4997
aI5015
aI5021
aI5033
aI5044
aI5021
aI-486
aI-479
aI5032
aI-498
aI5032
aI5027
aI4955
aI4883
aI4241
aI4997
aI5027
aI-485
aI5027
aI5044
aI5037
aI-473
aI-469
aI-512
aI-498
aI4984
aI-479
aI5044
aI5003
aI5033
aI-510
aI5015
aI5003
aI5006
aI-486
aI5015
aI5027
aI-496
aI5027
aI-486
aI-475
aI-577
aI5027
aI-485
aI5015
aI5032
aI-474
aI-560
aI-523
aI5027
aI5027
aI4997
aI-487
aI-488
aI4985
aI4991
aI5044
aI5040
aI5036
aI5032
aI5021
aI4985
aI4973
aI5023
aI5032
aI-511
aI5009
aI4991
aI4925
aI5021
aI-486
aI4907
aI-466
aI-558
aI-486
aI5021
aI5036
aI4979
aI4955
aI-489
aI-489
aI5040
aI4991
aI5015
aI-458
aI5015
aI5035
aI5035
aI-510
aI5027
aI-510
aI5033
aI-486
aI5002
aI5040
aI4961
aI4997
aI-512
aI-630
aI5043
aI4997
aI-1292
aI5044
aI-510
aI4925
aI-481
aI5033
aI5043
aI-512
aI5015
aI5021
aI-485
aI-482
aI-570
aI-485
aI-486
aI-461
aI-511
aI-509
aI-476
aI-620
aI5042
aI5033
aI5015
aI5016
aI-488
aI5033
aI4835
aI4965
aI-512
aI-535
aI-479
aI-510
aI4996
aI5027
aI5020
aI-485
aI-476
aI-500
aI5015
aI4931
aI5040
aI-469
aI-666
aI5021
aI-546
aI5043
aI-491
aI5033
aI5003
aI5027
aI5039
aI5009
aI-510
aI4823
aI-474
aI-680
aI-543
aI5027
aI-631
aI4990
aI5004
aI4979
aI5027
aI5033
aI-487
aI-486
aI4069
aI-489
aI-485
aI-482
aI-500
aI4685
aI5040
aI-799
aI-487
aI4991
aI5021
aI5044
aI-500
aI5021
aI-473
aI4979
aI5015
aI5027
aI4985
aI4907
aI5044
aI5036
aI5044
aI-474
aI-548
aI5044
aI5021
aI-469
aI5038
aI-511
aI4991
aI-1086
aI5003
aI5020
aI4889
aI4985
aI-525
aI-522
aI-488
aI5003
aI5044
aI5003
aI4931
aI-486
aI4996
aI-509
aI5033
aI-459
aI-534
aI-474
aI-485
aI-807
aI5027
aI5032
aI-594
aI5003
aI5027
aI5027
aI4973
aI5033
aI5040
aI-587
aI5032
aI-559
aI5027
aI4875
aI-522
aI5028
aI4049
aI5012
aI5033
aI4943
aI5044
aI-474
aI5015
aI5027
aI-461
aI5015
aI-474
aI5040
aI-510
aI-510
aI-486
aI-486
aI5015
aI5003
aI5044
aI4997
aI4991
aI-521
aI4895
aI5040
aI5009
aI4919
aI-545
aI4931
aI-462
aI5008
aI4991
aI4069
aI5044
aI5040
aI5032
aI-545
aI5027
aI-472
aI-607
aI-512
aI5027
aI5032
aI-524
aI5027
aI5044
aI4973
aI-496
aI-1039
aI-476
aI4965
aI4979
aI5044
aI4907
aI-468
aI-472
aI-499
aI-530
aI4931
aI5032
aI4991
aI4991
aI-491
aI5003
aI5032
aI5039
aI5008
aI4069
aI4961
aI5021
aI4900
aI5031
aI5015
aI5009
aI4955
aI-893
aI5033
aI-485
aI5009
aI5015
aI5021
aI4973
aI5044
aI-515
aI-496
aI5030
aI4991
aI5033
aI5033
aI-486
aI-474
aI4871
aI-461
aI-475
aI5040
aI-488
aI5021
aI-486
aI5044
aI5028
aI4997
aI5015
aI5009
aI5021
aI5044
aI-535
aI-583
aI-471
aI-499
aI-486
aI5027
aI-581
aI5021
aI5009
aI4997
aI5032
aI5027
aI5009
aI4991
aI5003
aI5033
aI4907
aI-460
aI5040
aI5044
aI5039
aI5008
aI-553
aI5021
aI4943
aI5021
aI5039
aI5032
aI4907
aI5040
aI5015
aI5040
aI-546
aI5009
aI-475
aI5009
aI-498
aI4967
aI5032
aI-499
aI5027
aI-607
aI5040
aI4991
aI-485
aI5007
aI4991
aI4709
aI5021
aI-511
aI5032
aI-511
aI-474
aI-474
aI-478
aI5015
aI5033
aI5032
aI5027
aI5027
aI5027
aI5040
aI4985
aI5003
aI-498
aI-517
aI5044
aI-506
aI4955
aI-486
aI5028
aI5040
aI4871
aI-580
aI5032
aI5023
aI5021
aI5033
aI-471
aI-510
aI-484
aI4996
aI5044
aI5027
aI4913
aI-485
aI5027
aI5040
aI5044
aI5032
aI5027
aI4979
aI5039
aI5009
aI5020
aI5033
aI5033
aI5015
aI5015
aI5040
aI5040
aI5032
aI5021
aI5003
aI5044
aI5033
aI-499
aI5040
aI4944
aI5033
aI-472
aI5033
aI-487
aI5018
aI5033
aI5033
aI-494
aI5033
aI-496
aI-474
aI5033
aI5015
aI-485
aI5027
aI5043
aI5044
aI5015
aI5033
aI5033
aI4955
aI-467
aI5023
aI-498
aI-486
aI5027
aI-487
aI-494
aI4973
aI-611
aI5028
aI-823
aI-487
aI5033
aI-482
aI5003
aI-486
aI5023
aI5028
aI5003
aI-486
aI4871
aI4979
aI5027
aI5027
aI5033
aI4943
aI-528
aI-510
aI4991
aI5034
aI-485
aI-641
aI-486
aI5003
aI-485
aI5031
aI5044
aI5040
aI5015
aI5021
aI-584
aI5027
aI-536
aI-559
aI5044
aI4991
aI5021
aI5033
aI5032
aI5015
aI5034
aI-487
aI4932
aI5044
aI5040
aI5035
aI-534
aI-487
aI5003
aI5036
aI5015
aI5004
aI4069
aI-569
aI5033
aI-524
aI5040
aI5021
aI4985
aI5032
aI5019
aI-488
aI5020
aI5015
aI4895
aI5044
aI-473
aI4984
aI5020
aI4967
aI5027
aI4943
aI4961
aI5015
aI4955
aI4529
aI-486
aI4991
aI4967
aI-474
aI5027
aI-462
aI5021
aI4349
aI5038
aI-459
aI5027
aI4931
aI5027
aI-467
aI4979
aI-846
aI4991
aI-522
aI5035
aI5027
aI-485
aI5021
aI-534
aI-536
aI5030
aI-485
aI5028
aI5002
aI5032
aI5007
aI5027
aI-498
aI5032
aI-548
aI5032
aI-1038
aI-536
aI5044
aI5027
aI4982
aI5015
aI-475
aI5033
aI-496
aI4069
aI-475
aI5027
aI5032
aI4949
aI5009
aI-474
aI-498
aI5003
aI-583
aI5039
aI5032
aI-690
aI4979
aI-509
aI-488
aI-462
aI5020
aI4991
aI4949
aI4931
aI5040
aI-668
aI-511
aI5033
aI-522
aI5021
aI-560
aI5003
aI-538
aI5020
aI4991
aI-533
aI5044
aI5003
aI5032
aI-481
aI4931
aI-511
aI4936
aI5025
aI4943
aI5033
aI4943
aI5028
aI5044
aI5021
aI-460
aI5033
aI4991
aI5033
aI5021
aI5044
aI4943
aI5036
aI5032
aI-522
aI5004
aI-477
aI5021
aI5020
aI5027
aI-593
aI5003
aI-586
aI4999
aI5028
aI4991
aI-469
aI5015
aI5033
aI5027
aI4967
aI4979
aI5015
aI5033
aI-511
aI-469
aI5015
aI5044
aI-485
aI5009
aI-473
aI-487
aI-524
aI5015
aI-499
aI-471
aI5040
aI5016
aI5040
aI5035
aI4967
aI-486
aI5021
aI4991
aI5027
aI-546
aI-471
aI5031
aI-480
aI4997
aI-486
aI5015
aI-486
aI5018
aI5021
aI-481
aI-480
aI-486
aI4972
aI-488
aI5021
aI5032
aI-559
aI-529
aI4931
aI5033
aI4997
aI4895
aI-488
aI5040
aI4847
aI4841
aI5027
aI5015
aI5027
aI-1111
aI4991
aI5021
aI-472
aI4949
aI-486
aI5032
aI5027
aI-547
aI5033
aI5009
aI5033
aI5032
aI4949
aI-470
aI-546
aI-497
aI5030
aI5021
aI-490
aI5033
aI5027
aI5036
aI-486
aI5028
aI-486
aI-511
aI-485
aI4949
aI-474
aI5032
aI4997
aI4199
aI5003
aI5044
aI5044
aI5015
aI-462
aI-536
aI5042
aI-485
aI5027
aI4985
aI-496
aI-488
aI5021
aI5028
aI5039
aI-486
aI5044
aI-487
aI5043
aI4949
aI5021
aI5032
aI-811
aI5036
aI-474
aI5044
aI4973
aI-484
aI-477
aI-498
aI-499
aI5027
aI4763
aI5027
aI5015
aI5027
aI5024
aI5027
aI5009
aI-524
aI5044
aI5009
aI5039
aI5033
aI-623
aI5021
aI-485
aI5009
aI5021
aI4973
aI4919
aI5021
aI5027
aI5040
aI4997
aI5027
aI4943
aI5027
aI5043
aI5040
aI-523
aI5027
aI5015
aI5027
aI-812
aI5021
aI4577
aI5027
aI5032
aI4991
aI-480
aI5027
aI-528
aI-573
aI5033
aI-481
aI5009
aI5027
aI5003
aI-487
aI5043
aI5033
aI-482
aI5021
aI5015
aI-486
aI5045
aI-517
aI5028
aI5033
aI-500
aI5040
aI5044
aI4967
aI-473
aI5027
aI-486
aI-474
aI5044
aI4991
aI4049
aI5011
aI5015
aI5027
aI5032
aI-466
aI4973
aI-488
aI4925
aI5015
aI5033
aI5040
aI-703
aI5015
aI-487
aI-522
aI5003
aI4923
aI5009
aI5021
aI5021
aI5033
aI5009
aI-559
aI4931
aI4943
aI5009
aI5015
aI-524
aI5008
aI5003
aI-487
aI5009
aI5040
aI-494
aI4997
aI4919
aI5032
aI-469
aI-484
aI5021
aI5021
aI-514
aI4979
aI4859
aI-487
aI4991
aI5020
aI5027
aI5044
aI5044
aI4955
aI5044
aI5027
aI5044
aI5009
aI-510
aI4859
aI5003
aI-490
aI4900
aI5033
aI-485
aI-493
aI5021
aI5009
aI4967
aI4991
aI4433
aI4991
aI5015
aI4997
aI-543
aI5027
aI-480
aI5044
aI-535
aI4928
aI-547
aI-487
aI5021
aI4955
aI4069
aI4943
aI-479
aI-536
aI5040
aI-461
aI-485
aI5003
aI5044
aI5044
aI-545
aI5015
aI-486
aI-493
aI5033
aI5007
aI4991
aI-468
aI5021
aI5044
aI5021
aI5027
aI5021
aI-484
aI5028
aI-485
aI-497
aI-527
aI5033
aI5027
aI5027
aI4955
aI5040
aI5009
aI4973
aI-656
aI5044
aI-485
aI5027
aI4985
aI-469
aI5027
aI4984
aI5034
aI-485
aI5031
aI-534
aI5033
aI5040
aI5027
aI-514
aI4985
aI5033
aI5009
aI5004
aI4984
aI5044
aI4991
aI4983
aI5040
aI5027
aI5033
aI5035
aI4983
aI-505
aI-547
aI4997
aI4979
aI5025
aI4895
aI5032
aI5027
aI4069
aI-504
aI5040
aI-479
aI5027
aI-464
aI5016
aI-485
aI5035
aI5021
aI4973
aI5003
aI-469
aI5016
aI5044
aI5040
aI5015
aI4979
aI5003
aI4979
aI4997
aI-559
aI-487
aI5032
aI5009
aI5015
aI5033
aI-474
aI5009
aI5009
aI-470
aI5036
aI5027
aI4848
aI4913
aI-488
aI5044
aI4907
aI-468
aI5021
aI5015
aI4637
aI5015
aI5009
aI5036
aI-488
aI5003
aI5027
aI5003
aI-485
aI-482
aI5044
aI5044
aI5044
aI5036
aI5021
aI-464
aI4995
aI5044
aI-468
aI5020
aI5028
aI5032
aI4996
aI-488
aI5027
aI4069
aI-498
aI5003
aI5015
aI5021
aI5031
aI-468
aI5032
aI4841
aI4979
aI-485
aI4876
aI5021
aI-980
aI-503
aI-511
aI-594
aI4893
aI4996
aI5020
aI-528
aI5027
aI5044
aI5033
aI5027
aI5016
aI5023
aI5021
aI4931
aI-497
aI-523
aI5044
aI4961
aI-474
aI5044
aI-477
aI4991
aI-486
aI4979
aI5027
aI5033
aI5021
aI-487
aI-482
aI4979
aI5003
aI5015
aI5027
aI5033
aI4979
aI5000
as.