(dp0
S'weights'
p1
cnumpy.core.multiarray
_reconstruct
p2
(cnumpy
ndarray
p3
(I0
tp4
S'b'
p5
tp6
Rp7
(I1
(I5
tp8
cnumpy
dtype
p9
(S'f8'
p10
I0
I1
tp11
Rp12
(I3
S'<'
p13
NNNI-1
I-1
I0
tp14
bI00
S"hY\xa1\x12'\xf6\xf0?|u\xednm\xce\xde?\x05\xd5\x8f\x8c\x06TI@5\xc3\xa8?\xd7\x17\xe3?\xedP\x82mnz\n@"
p15
tp16
bs.