(dp0
S'score'
p1
(lp2
F-500.0
aF-499.0
aF-477.0
aF-486.0
aF-475.0
aF-488.0
aF-484.0
aF-478.0
aF-487.0
aF-471.0
aF-477.0
aF-485.0
aF-477.0
aF-475.0
aF-486.0
aF-477.0
aF-486.0
aF-478.0
aF554.0
aF-471.0
aF-475.0
aF-490.0
aF-475.0
aF533.0
aF465.0
aF-473.0
aF-467.0
aF-471.0
aF548.0
aF-502.0
aF-475.0
aF-481.0
aF-469.0
aF-486.0
aF-496.0
aF538.0
aF-490.0
aF537.0
aF-498.0
aF519.0
aF511.0
aF-599.0
aF-487.0
aF-474.0
aF-498.0
aF-546.0
aF495.0
aF-489.0
aF-486.0
aF-505.0
aF-499.0
aF489.0
aF513.0
aF-487.0
aF-475.0
aF-488.0
aF-487.0
aF-488.0
aF-477.0
aF-500.0
aF-472.0
aF-488.0
aF-496.0
aF-486.0
aF-487.0
aF-501.0
aF523.0
aF-489.0
aF-499.0
aF-488.0
aF-496.0
aF-550.0
aF-658.0
aF-487.0
aF465.0
aF-500.0
aF-499.0
aF-461.0
aF-486.0
aF-495.0
aF-486.0
aF-475.0
aF-469.0
aF-502.0
aF-501.0
aF-481.0
aF-488.0
aF-499.0
aF-491.0
aF-502.0
aF-468.0
aF-551.0
aF-487.0
aF-486.0
aF489.0
aF-486.0
aF-488.0
aF495.0
aF-550.0
aF-498.0
aF-523.0
aF507.0
aF-501.0
aF552.0
aF-486.0
aF-596.0
aF-506.0
aF399.0
aF-515.0
aF-496.0
aF-560.0
aF-498.0
aF519.0
aF-489.0
aF-471.0
aF-488.0
aF531.0
aF-490.0
aF-475.0
aF531.0
aF-531.0
aF-510.0
aF-464.0
aF-499.0
aF-542.0
aF-488.0
aF-481.0
aF-523.0
aF-478.0
aF-489.0
aF-488.0
aF-477.0
aF-486.0
aF-496.0
aF-489.0
aF-477.0
aF-469.0
aF-486.0
aF-481.0
aF-496.0
aF-516.0
aF-488.0
aF-480.0
aF-488.0
aF-488.0
aF-475.0
aF-496.0
aF513.0
aF-496.0
aF-499.0
aF-486.0
aF-534.0
aF552.0
aF-483.0
aF-493.0
aF-488.0
aF-480.0
aF-475.0
aF-486.0
aF-488.0
aF491.0
aF-523.0
aF-486.0
aF-475.0
aF-512.0
aF543.0
aF-494.0
aF-496.0
aF-500.0
aF-475.0
aF-488.0
aF-591.0
aF-480.0
aF-488.0
aF-478.0
aF-476.0
aF-486.0
aF-472.0
aF-475.0
aF-507.0
aF485.0
aF-498.0
aF-476.0
aF-498.0
aF-473.0
aF-488.0
aF501.0
aF-480.0
aF-559.0
aF-486.0
aF-486.0
aF-492.0
aF-486.0
aF-547.0
aF-522.0
aF-536.0
aF513.0
aF-487.0
aF-511.0
aF-498.0
aF-511.0
aF-475.0
aF-475.0
aF442.0
aF-536.0
aF-539.0
aF-509.0
aF-606.0
aF-486.0
aF-562.0
aF-558.0
aF-486.0
aF514.0
aF-493.0
aF-475.0
aF-488.0
aF-481.0
aF-487.0
aF-516.0
aF-489.0
aF-495.0
aF-474.0
aF-471.0
aF-464.0
aF-474.0
aF-487.0
aF-472.0
aF-487.0
aF-474.0
aF-477.0
aF-464.0
aF-496.0
aF-488.0
aF-496.0
aF-490.0
aF525.0
aF-475.0
aF-484.0
aF-476.0
aF-477.0
aF-484.0
aF537.0
aF381.0
aF-498.0
aF-472.0
aF541.0
aF-475.0
aF-475.0
aF-489.0
aF-505.0
aF-474.0
aF523.0
aF547.0
aF-535.0
aF-481.0
aF-499.0
aF-487.0
aF-496.0
aF-488.0
aF-485.0
aF-475.0
aF-516.0
aF-486.0
aF-493.0
aF-475.0
aF-475.0
aF-485.0
aF-486.0
aF-475.0
aF-487.0
aF-469.0
aF-523.0
aF-587.0
aF-496.0
aF-510.0
aF-500.0
aF-503.0
aF-582.0
aF-511.0
aF-473.0
aF-484.0
aF428.0
aF-523.0
aF-486.0
aF-500.0
aF-487.0
aF-596.0
aF543.0
aF523.0
aF-466.0
aF-572.0
aF-496.0
aF469.0
aF-510.0
aF-494.0
aF-504.0
aF-491.0
aF-475.0
aF-475.0
aF-484.0
aF-486.0
aF-495.0
aF-526.0
aF-526.0
aF-486.0
aF-528.0
aF519.0
aF-486.0
aF-487.0
aF-463.0
aF-475.0
aF-498.0
aF-475.0
aF-643.0
aF530.0
aF524.0
aF-477.0
aF-500.0
aF-522.0
aF-489.0
aF-511.0
aF477.0
aF429.0
aF-496.0
aF-496.0
aF-496.0
aF-481.0
aF554.0
aF-526.0
aF-522.0
aF-491.0
aF-471.0
aF-475.0
aF-503.0
aF-488.0
aF434.0
aF-488.0
aF-506.0
aF-487.0
aF-487.0
aF-484.0
aF-546.0
aF-475.0
aF507.0
aF531.0
aF-475.0
aF-492.0
aF-486.0
aF-486.0
aF-610.0
aF-486.0
aF-568.0
aF-479.0
aF-499.0
aF-535.0
aF-482.0
aF-491.0
aF-486.0
aF-488.0
aF-496.0
aF531.0
aF-482.0
aF-475.0
aF-524.0
aF-486.0
aF-951.0
aF-485.0
aF-487.0
aF-500.0
aF-478.0
aF544.0
aF507.0
aF523.0
aF-535.0
aF-491.0
aF543.0
aF526.0
aF-498.0
aF-484.0
aF-488.0
aF-495.0
aF-476.0
aF539.0
aF-486.0
aF-501.0
aF541.0
aF-470.0
aF-488.0
aF-471.0
aF-507.0
aF-510.0
aF-499.0
aF-560.0
aF-490.0
aF-498.0
aF-481.0
aF-496.0
aF381.0
aF-471.0
aF-483.0
aF-486.0
aF-488.0
aF-487.0
aF-471.0
aF537.0
aF513.0
aF-480.0
aF-534.0
aF-482.0
aF-572.0
aF-486.0
aF-501.0
aF539.0
aF-493.0
aF-512.0
aF-463.0
aF-514.0
aF-490.0
aF-502.0
aF-475.0
aF-534.0
aF-470.0
aF548.0
aF-488.0
aF-483.0
aF-475.0
aF-486.0
aF-493.0
aF-474.0
aF-494.0
aF-475.0
aF-475.0
aF-491.0
aF-488.0
aF-482.0
aF-486.0
aF489.0
aF-502.0
aF-482.0
aF-491.0
aF542.0
aF-582.0
aF-486.0
aF-471.0
aF-476.0
aF-480.0
aF-487.0
aF530.0
aF-486.0
aF-522.0
aF-594.0
aF-510.0
aF-476.0
aF-487.0
aF-487.0
aF529.0
aF-498.0
aF507.0
aF467.0
aF-464.0
aF-475.0
aF-482.0
aF-470.0
aF-491.0
aF-588.0
aF-489.0
aF-499.0
aF548.0
aF-475.0
aF530.0
aF-486.0
aF-499.0
aF-488.0
aF-479.0
aF-487.0
aF-482.0
aF-497.0
aF-508.0
aF-625.0
aF-488.0
aF-490.0
aF-475.0
aF-545.0
aF-501.0
aF-490.0
aF-475.0
aF537.0
aF-470.0
aF-487.0
aF-475.0
aF-489.0
aF-511.0
aF-490.0
aF-510.0
aF-500.0
aF-498.0
aF-495.0
aF-482.0
aF-490.0
aF-512.0
asS'reward'
p3
(lp4
I-509
aI-499
aI-487
aI-486
aI-485
aI-488
aI-484
aI-488
aI-487
aI-471
aI-487
aI-495
aI-487
aI-485
aI-496
aI-487
aI-486
aI-488
aI5044
aI-471
aI-485
aI-490
aI-485
aI5023
aI4955
aI-483
aI-467
aI-471
aI5038
aI-502
aI-485
aI-491
aI-479
aI-486
aI-496
aI5028
aI-490
aI5027
aI-498
aI5009
aI5001
aI-599
aI-487
aI-474
aI-498
aI-546
aI4985
aI-489
aI-486
aI-505
aI-499
aI4979
aI5003
aI-487
aI-475
aI-488
aI-487
aI-488
aI-487
aI-500
aI-472
aI-498
aI-496
aI-486
aI-487
aI-501
aI5013
aI-489
aI-509
aI-488
aI-496
aI-550
aI-658
aI-487
aI4955
aI-500
aI-499
aI-471
aI-486
aI-505
aI-486
aI-485
aI-479
aI-502
aI-501
aI-481
aI-488
aI-499
aI-501
aI-502
aI-468
aI-551
aI-487
aI-486
aI4979
aI-486
aI-488
aI4985
aI-550
aI-498
aI-523
aI4997
aI-501
aI5042
aI-486
aI-596
aI-506
aI4889
aI-515
aI-496
aI-560
aI-498
aI5009
aI-489
aI-481
aI-488
aI5021
aI-490
aI-485
aI5021
aI-531
aI-510
aI-474
aI-499
aI-542
aI-488
aI-481
aI-523
aI-488
aI-489
aI-488
aI-477
aI-486
aI-496
aI-489
aI-477
aI-469
aI-486
aI-481
aI-496
aI-516
aI-488
aI-480
aI-488
aI-488
aI-485
aI-496
aI5003
aI-496
aI-499
aI-486
aI-534
aI5042
aI-483
aI-493
aI-488
aI-480
aI-485
aI-486
aI-488
aI4981
aI-523
aI-486
aI-475
aI-512
aI5033
aI-494
aI-496
aI-500
aI-485
aI-488
aI-591
aI-480
aI-488
aI-488
aI-476
aI-486
aI-472
aI-485
aI-507
aI4975
aI-498
aI-486
aI-498
aI-483
aI-488
aI4991
aI-480
aI-569
aI-496
aI-486
aI-492
aI-496
aI-547
aI-522
aI-536
aI5003
aI-487
aI-511
aI-498
aI-521
aI-485
aI-475
aI4932
aI-536
aI-539
aI-509
aI-606
aI-486
aI-562
aI-558
aI-486
aI5004
aI-493
aI-485
aI-488
aI-491
aI-487
aI-526
aI-489
aI-495
aI-474
aI-471
aI-474
aI-474
aI-487
aI-472
aI-487
aI-474
aI-487
aI-474
aI-496
aI-488
aI-496
aI-490
aI5015
aI-485
aI-484
aI-486
aI-487
aI-484
aI5027
aI4871
aI-498
aI-482
aI5031
aI-485
aI-485
aI-489
aI-505
aI-474
aI5013
aI5037
aI-535
aI-491
aI-499
aI-497
aI-496
aI-488
aI-485
aI-485
aI-516
aI-486
aI-503
aI-485
aI-485
aI-485
aI-486
aI-485
aI-487
aI-469
aI-523
aI-587
aI-496
aI-510
aI-500
aI-503
aI-582
aI-511
aI-483
aI-484
aI4918
aI-523
aI-486
aI-500
aI-487
aI-596
aI5033
aI5013
aI-466
aI-572
aI-496
aI4959
aI-510
aI-494
aI-504
aI-491
aI-485
aI-475
aI-484
aI-486
aI-495
aI-526
aI-526
aI-486
aI-528
aI5009
aI-486
aI-487
aI-473
aI-485
aI-498
aI-485
aI-643
aI5020
aI5014
aI-487
aI-500
aI-522
aI-489
aI-511
aI4967
aI4919
aI-496
aI-496
aI-496
aI-481
aI5044
aI-526
aI-522
aI-491
aI-471
aI-485
aI-513
aI-488
aI4924
aI-488
aI-516
aI-487
aI-487
aI-494
aI-546
aI-485
aI4997
aI5021
aI-475
aI-492
aI-486
aI-486
aI-610
aI-486
aI-568
aI-479
aI-509
aI-535
aI-482
aI-501
aI-486
aI-498
aI-496
aI5021
aI-482
aI-475
aI-524
aI-486
aI4049
aI-495
aI-487
aI-500
aI-478
aI5034
aI4997
aI5013
aI-545
aI-491
aI5033
aI5016
aI-498
aI-494
aI-488
aI-505
aI-486
aI5029
aI-486
aI-501
aI5031
aI-470
aI-488
aI-471
aI-507
aI-510
aI-509
aI-560
aI-490
aI-498
aI-481
aI-496
aI4871
aI-481
aI-493
aI-486
aI-488
aI-487
aI-471
aI5027
aI5003
aI-480
aI-534
aI-492
aI-572
aI-486
aI-501
aI5029
aI-493
aI-512
aI-473
aI-514
aI-490
aI-502
aI-485
aI-534
aI-470
aI5038
aI-488
aI-493
aI-485
aI-486
aI-493
aI-474
aI-494
aI-485
aI-485
aI-491
aI-488
aI-482
aI-486
aI4979
aI-502
aI-482
aI-491
aI5032
aI-582
aI-486
aI-481
aI-476
aI-480
aI-487
aI5020
aI-486
aI-522
aI-594
aI-510
aI-476
aI-497
aI-487
aI5019
aI-498
aI4997
aI4957
aI-464
aI-485
aI-482
aI-470
aI-491
aI-588
aI-499
aI-499
aI5038
aI-475
aI5020
aI-486
aI-509
aI-488
aI-479
aI-487
aI-492
aI-497
aI-508
aI-625
aI-488
aI-490
aI-485
aI-555
aI-501
aI-490
aI-475
aI5027
aI-470
aI-487
aI-485
aI-489
aI-511
aI-490
aI-510
aI-500
aI-498
aI-495
aI-482
aI-500
aI-522
as.