(dp0
S'score'
p1
(lp2
F-510.0
aF-486.0
aF-528.0
aF-495.0
aF-471.0
aF-461.0
aF-480.0
aF-459.0
aF-475.0
aF555.0
aF-471.0
aF-468.0
aF-474.0
aF547.0
aF470.0
aF-483.0
aF540.0
aF551.0
aF-496.0
aF-562.0
aF-517.0
aF525.0
aF465.0
aF-499.0
aF-479.0
aF-497.0
aF-460.0
aF-471.0
aF-708.0
aF-484.0
aF-472.0
aF546.0
aF-475.0
aF-481.0
aF499.0
aF-477.0
aF-673.0
aF285.0
aF485.0
aF-493.0
aF-478.0
aF-486.0
aF515.0
aF533.0
aF500.0
aF539.0
aF-457.0
aF-491.0
aF549.0
aF547.0
aF-489.0
aF529.0
aF-476.0
aF-486.0
aF527.0
aF557.0
aF250.0
aF535.0
aF-482.0
aF-502.0
aF539.0
aF-469.0
aF-498.0
aF519.0
aF-537.0
aF-470.0
aF-467.0
aF485.0
aF537.0
aF-562.0
aF533.0
aF-585.0
aF-486.0
aF-489.0
aF-480.0
aF-486.0
aF-499.0
aF-484.0
aF491.0
aF543.0
aF518.0
aF-493.0
aF-477.0
aF543.0
aF427.0
aF440.0
aF494.0
aF-484.0
aF544.0
aF-500.0
aF537.0
aF517.0
aF-473.0
aF-512.0
aF537.0
aF-501.0
aF551.0
aF-503.0
aF511.0
aF-478.0
aF538.0
aF-489.0
aF546.0
aF526.0
aF529.0
aF518.0
aF-488.0
aF-478.0
aF551.0
aF-562.0
aF531.0
aF-489.0
aF535.0
aF-533.0
aF-489.0
aF-459.0
aF-515.0
aF-490.0
aF535.0
aF493.0
aF-497.0
aF-468.0
aF541.0
aF509.0
aF-498.0
aF530.0
aF-544.0
aF533.0
aF-481.0
aF535.0
aF-496.0
aF519.0
aF481.0
aF533.0
aF549.0
aF501.0
aF-529.0
aF-491.0
aF439.0
aF-525.0
aF397.0
aF-475.0
aF545.0
aF483.0
aF541.0
aF-488.0
aF523.0
aF-465.0
aF-492.0
aF-470.0
aF523.0
aF392.0
aF505.0
aF-481.0
aF513.0
aF-478.0
aF509.0
aF545.0
aF-461.0
aF-503.0
aF-481.0
aF-485.0
aF519.0
aF471.0
aF-492.0
aF481.0
aF471.0
aF-477.0
aF-524.0
aF519.0
aF-470.0
aF-479.0
aF526.0
aF519.0
aF509.0
aF505.0
aF-467.0
aF551.0
aF-747.0
aF-481.0
aF-491.0
aF505.0
aF-605.0
aF501.0
aF-472.0
aF-477.0
aF527.0
aF-490.0
aF-470.0
aF-482.0
aF-513.0
aF493.0
aF-516.0
aF-466.0
aF-479.0
aF531.0
aF537.0
aF-504.0
aF536.0
aF-551.0
aF-519.0
aF-468.0
aF-483.0
aF547.0
aF533.0
aF-553.0
aF-482.0
aF481.0
aF507.0
aF547.0
aF517.0
aF-474.0
aF539.0
aF-578.0
aF-522.0
aF-473.0
aF-529.0
aF497.0
aF-488.0
aF-490.0
aF-498.0
aF-514.0
aF537.0
aF-475.0
aF-478.0
aF513.0
aF-490.0
aF-478.0
aF543.0
aF-484.0
aF481.0
aF-525.0
aF494.0
aF503.0
aF-616.0
aF525.0
aF-532.0
aF501.0
aF-502.0
aF-525.0
aF485.0
aF-474.0
aF511.0
aF-496.0
aF518.0
aF505.0
aF516.0
aF-483.0
aF557.0
aF-471.0
aF-479.0
aF-549.0
aF475.0
aF511.0
aF-483.0
aF-492.0
aF-485.0
aF533.0
aF-468.0
aF-535.0
aF485.0
aF-477.0
aF487.0
aF-486.0
aF-482.0
aF-487.0
aF-492.0
aF-480.0
aF-480.0
aF-533.0
aF517.0
aF518.0
aF423.0
aF511.0
aF525.0
aF527.0
aF-523.0
aF549.0
aF-477.0
aF-494.0
aF-459.0
aF528.0
aF-486.0
aF539.0
aF517.0
aF521.0
aF-530.0
aF513.0
aF465.0
aF525.0
aF-502.0
aF-463.0
aF-477.0
aF457.0
aF-493.0
aF-496.0
aF495.0
aF-484.0
aF546.0
aF547.0
aF-494.0
aF-482.0
aF-483.0
aF-489.0
aF-512.0
aF-506.0
aF-465.0
aF-475.0
aF-480.0
aF-478.0
aF522.0
aF-483.0
aF531.0
aF497.0
aF-961.0
aF527.0
aF-474.0
aF-478.0
aF-487.0
aF-488.0
aF-489.0
aF-498.0
aF-482.0
aF517.0
aF501.0
aF553.0
aF-482.0
aF-535.0
aF535.0
aF546.0
aF-518.0
aF-515.0
aF-471.0
aF-496.0
aF-481.0
aF-475.0
aF-462.0
aF-481.0
aF-484.0
aF517.0
aF520.0
aF-479.0
aF-467.0
aF534.0
aF560.0
aF537.0
aF-467.0
aF493.0
aF535.0
aF-478.0
aF433.0
aF515.0
aF-486.0
aF-487.0
aF-458.0
aF527.0
aF-468.0
aF545.0
aF547.0
aF-516.0
aF551.0
aF-484.0
aF-493.0
aF517.0
aF-482.0
aF-502.0
aF-466.0
aF-516.0
aF527.0
aF531.0
aF-490.0
aF-485.0
aF-482.0
aF-494.0
aF-473.0
aF447.0
aF531.0
aF546.0
aF-574.0
aF487.0
aF-476.0
aF501.0
aF-480.0
aF524.0
aF-498.0
aF544.0
aF-484.0
aF555.0
aF541.0
aF-471.0
aF522.0
aF542.0
aF-476.0
aF543.0
aF-479.0
aF465.0
aF540.0
aF547.0
aF517.0
aF516.0
aF-485.0
aF-492.0
aF-500.0
aF-478.0
aF-503.0
aF-492.0
aF-493.0
aF551.0
aF534.0
aF487.0
aF454.0
aF526.0
aF523.0
aF-506.0
aF-509.0
aF527.0
aF511.0
aF523.0
aF-480.0
aF-474.0
aF514.0
aF-487.0
aF547.0
aF-472.0
aF-505.0
aF485.0
aF-497.0
aF543.0
aF-482.0
aF-512.0
aF495.0
aF-490.0
aF507.0
aF-478.0
aF519.0
aF534.0
aF-467.0
aF461.0
aF495.0
aF-474.0
aF501.0
aF509.0
aF-552.0
aF-504.0
aF-467.0
aF550.0
aF-521.0
aF545.0
aF551.0
aF-507.0
aF-494.0
aF513.0
aF-489.0
aF543.0
aF541.0
aF-459.0
aF505.0
aF-529.0
aF-548.0
aF-482.0
aF539.0
aF536.0
aF-494.0
aF-489.0
aF-616.0
aF-488.0
aF465.0
aF523.0
aF503.0
aF-479.0
aF507.0
aF547.0
aF-528.0
aF491.0
aF-499.0
aF-457.0
aF499.0
aF509.0
aF512.0
aF-491.0
aF-504.0
aF-476.0
aF-478.0
aF-540.0
aF-478.0
aF-480.0
aF479.0
aF543.0
aF-531.0
aF-483.0
aF-482.0
aF-481.0
aF-487.0
aF539.0
aF-474.0
aF-495.0
aF524.0
aF451.0
aF-479.0
aF517.0
asS'reward'
p3
(lp4
I-519
aI-496
aI-528
aI-495
aI-471
aI-471
aI-480
aI-469
aI-485
aI5045
aI-471
aI-468
aI-484
aI5037
aI4960
aI-483
aI5030
aI5041
aI-496
aI-572
aI-517
aI5015
aI4955
aI-499
aI-479
aI-507
aI-460
aI-481
aI-708
aI-484
aI-472
aI5036
aI-475
aI-481
aI4989
aI-477
aI-673
aI4775
aI4975
aI-493
aI-478
aI-486
aI5005
aI5023
aI4990
aI5029
aI-457
aI-491
aI5039
aI5037
aI-489
aI5019
aI-476
aI-496
aI5017
aI5047
aI4740
aI5025
aI-482
aI-502
aI5029
aI-479
aI-498
aI5009
aI-537
aI-470
aI-477
aI4975
aI5027
aI-562
aI5023
aI-595
aI-486
aI-499
aI-480
aI-486
aI-499
aI-484
aI4981
aI5033
aI5008
aI-503
aI-487
aI5033
aI4917
aI4930
aI4984
aI-484
aI5034
aI-500
aI5027
aI5007
aI-473
aI-512
aI5027
aI-511
aI5041
aI-503
aI5001
aI-478
aI5028
aI-489
aI5036
aI5016
aI5019
aI5008
aI-488
aI-478
aI5041
aI-562
aI5021
aI-489
aI5025
aI-543
aI-489
aI-469
aI-525
aI-490
aI5025
aI4983
aI-497
aI-468
aI5031
aI4999
aI-498
aI5020
aI-554
aI5023
aI-481
aI5025
aI-496
aI5009
aI4971
aI5023
aI5039
aI4991
aI-529
aI-491
aI4929
aI-525
aI4887
aI-485
aI5035
aI4973
aI5031
aI-488
aI5013
aI-475
aI-492
aI-470
aI5013
aI4882
aI4995
aI-481
aI5003
aI-478
aI4999
aI5035
aI-461
aI-503
aI-481
aI-485
aI5009
aI4961
aI-492
aI4971
aI4961
aI-477
aI-524
aI5009
aI-470
aI-479
aI5016
aI5009
aI4999
aI4995
aI-467
aI5041
aI-747
aI-491
aI-501
aI4995
aI-605
aI4991
aI-472
aI-477
aI5017
aI-490
aI-480
aI-482
aI-513
aI4983
aI-516
aI-466
aI-479
aI5021
aI5027
aI-504
aI5026
aI-551
aI-519
aI-468
aI-483
aI5037
aI5023
aI-553
aI-492
aI4971
aI4997
aI5037
aI5007
aI-474
aI5029
aI-578
aI-522
aI-473
aI-529
aI4987
aI-488
aI-490
aI-498
aI-514
aI5027
aI-475
aI-488
aI5003
aI-500
aI-488
aI5033
aI-484
aI4971
aI-525
aI4984
aI4993
aI-616
aI5015
aI-532
aI4991
aI-502
aI-525
aI4975
aI-474
aI5001
aI-496
aI5008
aI4995
aI5006
aI-483
aI5047
aI-471
aI-479
aI-559
aI4965
aI5001
aI-483
aI-502
aI-485
aI5023
aI-468
aI-535
aI4975
aI-477
aI4977
aI-486
aI-482
aI-487
aI-492
aI-480
aI-480
aI-533
aI5007
aI5008
aI4913
aI5001
aI5015
aI5017
aI-523
aI5039
aI-477
aI-504
aI-469
aI5018
aI-486
aI5029
aI5007
aI5011
aI-530
aI5003
aI4955
aI5015
aI-502
aI-473
aI-477
aI4947
aI-493
aI-496
aI4985
aI-484
aI5036
aI5037
aI-494
aI-482
aI-483
aI-499
aI-522
aI-506
aI-475
aI-475
aI-480
aI-478
aI5012
aI-483
aI5021
aI4987
aI4039
aI5017
aI-474
aI-478
aI-487
aI-488
aI-489
aI-498
aI-482
aI5007
aI4991
aI5043
aI-482
aI-535
aI5025
aI5036
aI-518
aI-515
aI-481
aI-496
aI-481
aI-485
aI-462
aI-481
aI-484
aI5007
aI5010
aI-489
aI-477
aI5024
aI5050
aI5027
aI-477
aI4983
aI5025
aI-478
aI4923
aI5005
aI-486
aI-487
aI-458
aI5017
aI-468
aI5035
aI5037
aI-516
aI5041
aI-484
aI-503
aI5007
aI-482
aI-502
aI-466
aI-516
aI5017
aI5021
aI-490
aI-485
aI-482
aI-494
aI-473
aI4937
aI5021
aI5036
aI-574
aI4977
aI-476
aI4991
aI-490
aI5014
aI-498
aI5034
aI-484
aI5045
aI5031
aI-481
aI5012
aI5032
aI-476
aI5033
aI-489
aI4955
aI5030
aI5037
aI5007
aI5006
aI-485
aI-492
aI-500
aI-478
aI-503
aI-492
aI-493
aI5041
aI5024
aI4977
aI4944
aI5016
aI5013
aI-516
aI-519
aI5017
aI5001
aI5013
aI-480
aI-474
aI5004
aI-487
aI5037
aI-472
aI-505
aI4975
aI-497
aI5033
aI-492
aI-512
aI4985
aI-490
aI4997
aI-478
aI5009
aI5024
aI-477
aI4951
aI4985
aI-474
aI4991
aI4999
aI-552
aI-504
aI-467
aI5040
aI-521
aI5035
aI5041
aI-507
aI-494
aI5003
aI-489
aI5033
aI5031
aI-459
aI4995
aI-529
aI-548
aI-482
aI5029
aI5026
aI-504
aI-489
aI-616
aI-498
aI4955
aI5013
aI4993
aI-479
aI4997
aI5037
aI-528
aI4981
aI-499
aI-467
aI4989
aI4999
aI5002
aI-491
aI-504
aI-476
aI-478
aI-540
aI-478
aI-480
aI4969
aI5033
aI-531
aI-483
aI-482
aI-481
aI-487
aI5029
aI-474
aI-505
aI5014
aI4941
aI-479
aI5007
as.