(dp0
S'score'
p1
(lp2
F-511.0
aF-497.0
aF-524.0
aF-486.0
aF-488.0
aF-476.0
aF-513.0
aF-499.0
aF-505.0
aF-475.0
aF-478.0
aF-499.0
aF-499.0
aF-474.0
aF-488.0
aF-483.0
aF-511.0
aF-488.0
aF-524.0
aF-548.0
aF-488.0
aF-475.0
aF-458.0
aF-482.0
aF-475.0
aF-471.0
aF-470.0
aF-493.0
aF-465.0
aF-462.0
aF-459.0
aF-462.0
aF-461.0
aF-479.0
aF-482.0
aF-506.0
aF-474.0
aF-483.0
aF-460.0
aF-477.0
aF-466.0
aF-461.0
aF-470.0
aF549.0
aF-499.0
aF549.0
aF549.0
aF537.0
aF556.0
aF556.0
aF556.0
aF520.0
aF549.0
aF556.0
aF556.0
aF556.0
aF556.0
aF556.0
aF556.0
aF556.0
aF556.0
aF549.0
aF556.0
aF556.0
aF556.0
aF556.0
aF556.0
aF556.0
aF556.0
aF556.0
aF556.0
aF556.0
aF556.0
aF556.0
aF556.0
aF556.0
aF556.0
aF556.0
aF556.0
aF556.0
aF556.0
aF556.0
aF556.0
aF556.0
aF556.0
aF556.0
aF556.0
aF556.0
aF556.0
aF556.0
aF556.0
aF556.0
aF556.0
aF556.0
aF556.0
aF556.0
aF556.0
aF556.0
aF556.0
aF556.0
aF556.0
aF556.0
aF556.0
aF556.0
aF556.0
aF556.0
aF556.0
aF556.0
aF556.0
aF556.0
aF556.0
aF556.0
aF556.0
aF549.0
aF556.0
aF556.0
aF556.0
aF556.0
aF556.0
aF556.0
aF556.0
aF556.0
aF556.0
aF556.0
aF556.0
aF556.0
aF556.0
aF556.0
aF556.0
aF556.0
aF556.0
aF556.0
aF556.0
aF556.0
aF556.0
aF556.0
aF556.0
aF556.0
aF556.0
aF556.0
aF556.0
aF556.0
aF556.0
aF556.0
aF556.0
aF556.0
aF556.0
aF556.0
aF556.0
aF556.0
aF556.0
aF556.0
aF556.0
aF556.0
aF556.0
aF556.0
aF556.0
aF556.0
aF556.0
aF-461.0
aF556.0
aF556.0
aF556.0
aF556.0
aF556.0
aF556.0
aF556.0
aF-513.0
aF556.0
aF556.0
aF556.0
aF556.0
aF-489.0
aF556.0
aF556.0
aF556.0
aF556.0
aF556.0
aF556.0
aF556.0
aF556.0
aF556.0
aF556.0
aF556.0
aF556.0
aF556.0
aF556.0
aF556.0
aF556.0
aF556.0
aF556.0
aF556.0
aF556.0
aF556.0
aF556.0
aF556.0
aF556.0
aF556.0
aF556.0
aF556.0
aF556.0
aF556.0
aF556.0
aF556.0
aF556.0
aF556.0
aF556.0
aF556.0
aF556.0
aF556.0
aF556.0
aF556.0
aF556.0
aF556.0
aF556.0
aF556.0
aF556.0
aF556.0
aF556.0
aF556.0
aF556.0
aF556.0
aF556.0
aF556.0
aF556.0
aF556.0
aF556.0
aF556.0
aF556.0
aF556.0
aF556.0
aF556.0
aF556.0
aF556.0
aF556.0
aF-473.0
aF556.0
aF556.0
aF556.0
aF556.0
aF556.0
aF556.0
aF556.0
aF556.0
aF556.0
aF556.0
aF556.0
aF556.0
aF556.0
aF556.0
aF556.0
aF556.0
aF556.0
aF556.0
aF556.0
aF556.0
aF556.0
aF556.0
aF556.0
aF556.0
aF556.0
aF556.0
aF556.0
aF556.0
aF556.0
aF556.0
aF556.0
aF556.0
aF556.0
aF556.0
aF556.0
aF556.0
aF556.0
aF556.0
aF556.0
aF556.0
aF556.0
aF556.0
aF556.0
aF556.0
aF556.0
aF556.0
aF556.0
aF556.0
aF556.0
aF556.0
aF556.0
aF556.0
aF556.0
aF556.0
aF556.0
aF556.0
aF556.0
aF556.0
aF-475.0
aF556.0
aF556.0
aF556.0
aF556.0
aF556.0
aF556.0
aF556.0
aF556.0
aF556.0
aF556.0
aF556.0
aF556.0
aF556.0
aF556.0
aF556.0
aF556.0
aF556.0
aF556.0
aF556.0
aF556.0
aF556.0
aF556.0
aF556.0
aF556.0
aF556.0
aF556.0
aF556.0
aF556.0
aF556.0
aF556.0
aF556.0
aF556.0
aF556.0
aF556.0
aF556.0
aF556.0
aF556.0
aF556.0
aF556.0
aF556.0
aF556.0
aF556.0
aF556.0
aF556.0
aF556.0
aF556.0
aF556.0
aF556.0
aF556.0
aF556.0
aF556.0
aF556.0
aF556.0
aF556.0
aF556.0
aF556.0
aF556.0
aF556.0
aF556.0
aF556.0
aF556.0
aF556.0
aF556.0
aF556.0
aF556.0
aF556.0
aF556.0
aF556.0
aF556.0
aF556.0
aF556.0
aF556.0
aF556.0
aF556.0
aF556.0
aF556.0
aF556.0
aF556.0
aF556.0
aF556.0
aF556.0
aF556.0
aF556.0
aF556.0
aF556.0
aF556.0
aF556.0
aF556.0
aF556.0
aF556.0
aF556.0
aF556.0
aF556.0
aF556.0
aF556.0
aF556.0
aF556.0
aF556.0
aF556.0
aF556.0
aF556.0
aF556.0
aF556.0
aF556.0
aF556.0
aF556.0
aF556.0
aF556.0
aF556.0
aF556.0
aF556.0
aF556.0
aF556.0
aF556.0
aF556.0
aF556.0
aF556.0
aF556.0
aF556.0
aF556.0
aF556.0
aF556.0
aF556.0
aF556.0
aF556.0
aF556.0
aF556.0
aF556.0
aF556.0
aF556.0
aF556.0
aF556.0
aF556.0
aF556.0
aF556.0
aF556.0
aF556.0
aF556.0
aF556.0
aF556.0
aF556.0
aF556.0
aF556.0
aF556.0
aF556.0
aF556.0
aF556.0
aF556.0
aF556.0
aF556.0
aF556.0
aF556.0
aF556.0
aF556.0
aF556.0
aF556.0
aF556.0
aF556.0
aF556.0
aF556.0
aF556.0
aF556.0
aF556.0
aF556.0
aF556.0
aF556.0
aF556.0
aF556.0
aF556.0
aF556.0
aF556.0
aF556.0
aF556.0
aF556.0
aF556.0
aF556.0
aF556.0
aF556.0
aF556.0
aF556.0
aF556.0
aF556.0
aF556.0
aF556.0
aF556.0
aF556.0
aF556.0
aF556.0
aF556.0
aF556.0
aF556.0
aF556.0
aF556.0
aF556.0
aF556.0
aF556.0
aF556.0
aF556.0
aF556.0
aF556.0
aF556.0
aF556.0
aF556.0
aF556.0
aF556.0
aF556.0
asS'reward'
p3
(lp4
I-511
aI-497
aI-524
aI-486
aI-488
aI-476
aI-513
aI-499
aI-505
aI-475
aI-478
aI-499
aI-499
aI-474
aI-488
aI-483
aI-511
aI-488
aI-524
aI-548
aI-488
aI-475
aI-458
aI-482
aI-475
aI-471
aI-470
aI-493
aI-465
aI-462
aI-459
aI-462
aI-461
aI-479
aI-482
aI-506
aI-474
aI-483
aI-460
aI-477
aI-466
aI-461
aI-470
aI5049
aI-499
aI5049
aI5049
aI5037
aI5056
aI5056
aI5056
aI5020
aI5049
aI5056
aI5056
aI5056
aI5056
aI5056
aI5056
aI5056
aI5056
aI5049
aI5056
aI5056
aI5056
aI5056
aI5056
aI5056
aI5056
aI5056
aI5056
aI5056
aI5056
aI5056
aI5056
aI5056
aI5056
aI5056
aI5056
aI5056
aI5056
aI5056
aI5056
aI5056
aI5056
aI5056
aI5056
aI5056
aI5056
aI5056
aI5056
aI5056
aI5056
aI5056
aI5056
aI5056
aI5056
aI5056
aI5056
aI5056
aI5056
aI5056
aI5056
aI5056
aI5056
aI5056
aI5056
aI5056
aI5056
aI5056
aI5056
aI5056
aI5056
aI5049
aI5056
aI5056
aI5056
aI5056
aI5056
aI5056
aI5056
aI5056
aI5056
aI5056
aI5056
aI5056
aI5056
aI5056
aI5056
aI5056
aI5056
aI5056
aI5056
aI5056
aI5056
aI5056
aI5056
aI5056
aI5056
aI5056
aI5056
aI5056
aI5056
aI5056
aI5056
aI5056
aI5056
aI5056
aI5056
aI5056
aI5056
aI5056
aI5056
aI5056
aI5056
aI5056
aI5056
aI5056
aI5056
aI-461
aI5056
aI5056
aI5056
aI5056
aI5056
aI5056
aI5056
aI-513
aI5056
aI5056
aI5056
aI5056
aI-489
aI5056
aI5056
aI5056
aI5056
aI5056
aI5056
aI5056
aI5056
aI5056
aI5056
aI5056
aI5056
aI5056
aI5056
aI5056
aI5056
aI5056
aI5056
aI5056
aI5056
aI5056
aI5056
aI5056
aI5056
aI5056
aI5056
aI5056
aI5056
aI5056
aI5056
aI5056
aI5056
aI5056
aI5056
aI5056
aI5056
aI5056
aI5056
aI5056
aI5056
aI5056
aI5056
aI5056
aI5056
aI5056
aI5056
aI5056
aI5056
aI5056
aI5056
aI5056
aI5056
aI5056
aI5056
aI5056
aI5056
aI5056
aI5056
aI5056
aI5056
aI5056
aI5056
aI-473
aI5056
aI5056
aI5056
aI5056
aI5056
aI5056
aI5056
aI5056
aI5056
aI5056
aI5056
aI5056
aI5056
aI5056
aI5056
aI5056
aI5056
aI5056
aI5056
aI5056
aI5056
aI5056
aI5056
aI5056
aI5056
aI5056
aI5056
aI5056
aI5056
aI5056
aI5056
aI5056
aI5056
aI5056
aI5056
aI5056
aI5056
aI5056
aI5056
aI5056
aI5056
aI5056
aI5056
aI5056
aI5056
aI5056
aI5056
aI5056
aI5056
aI5056
aI5056
aI5056
aI5056
aI5056
aI5056
aI5056
aI5056
aI5056
aI-475
aI5056
aI5056
aI5056
aI5056
aI5056
aI5056
aI5056
aI5056
aI5056
aI5056
aI5056
aI5056
aI5056
aI5056
aI5056
aI5056
aI5056
aI5056
aI5056
aI5056
aI5056
aI5056
aI5056
aI5056
aI5056
aI5056
aI5056
aI5056
aI5056
aI5056
aI5056
aI5056
aI5056
aI5056
aI5056
aI5056
aI5056
aI5056
aI5056
aI5056
aI5056
aI5056
aI5056
aI5056
aI5056
aI5056
aI5056
aI5056
aI5056
aI5056
aI5056
aI5056
aI5056
aI5056
aI5056
aI5056
aI5056
aI5056
aI5056
aI5056
aI5056
aI5056
aI5056
aI5056
aI5056
aI5056
aI5056
aI5056
aI5056
aI5056
aI5056
aI5056
aI5056
aI5056
aI5056
aI5056
aI5056
aI5056
aI5056
aI5056
aI5056
aI5056
aI5056
aI5056
aI5056
aI5056
aI5056
aI5056
aI5056
aI5056
aI5056
aI5056
aI5056
aI5056
aI5056
aI5056
aI5056
aI5056
aI5056
aI5056
aI5056
aI5056
aI5056
aI5056
aI5056
aI5056
aI5056
aI5056
aI5056
aI5056
aI5056
aI5056
aI5056
aI5056
aI5056
aI5056
aI5056
aI5056
aI5056
aI5056
aI5056
aI5056
aI5056
aI5056
aI5056
aI5056
aI5056
aI5056
aI5056
aI5056
aI5056
aI5056
aI5056
aI5056
aI5056
aI5056
aI5056
aI5056
aI5056
aI5056
aI5056
aI5056
aI5056
aI5056
aI5056
aI5056
aI5056
aI5056
aI5056
aI5056
aI5056
aI5056
aI5056
aI5056
aI5056
aI5056
aI5056
aI5056
aI5056
aI5056
aI5056
aI5056
aI5056
aI5056
aI5056
aI5056
aI5056
aI5056
aI5056
aI5056
aI5056
aI5056
aI5056
aI5056
aI5056
aI5056
aI5056
aI5056
aI5056
aI5056
aI5056
aI5056
aI5056
aI5056
aI5056
aI5056
aI5056
aI5056
aI5056
aI5056
aI5056
aI5056
aI5056
aI5056
aI5056
aI5056
aI5056
aI5056
aI5056
aI5056
aI5056
aI5056
aI5056
aI5056
aI5056
aI0
as.