(dp0
S'score'
p1
(lp2
F-524.0
aF-511.0
aF-518.0
aF-522.0
aF-487.0
aF-474.0
aF-487.0
aF-477.0
aF-486.0
aF-481.0
aF-509.0
aF-490.0
aF-481.0
aF-481.0
aF-486.0
aF-468.0
aF-539.0
aF-485.0
aF-510.0
aF-471.0
aF-501.0
aF-475.0
aF-489.0
aF-531.0
aF-487.0
aF-510.0
aF-472.0
aF-469.0
aF-510.0
aF-558.0
aF-471.0
aF-569.0
aF-485.0
aF-494.0
aF-483.0
aF-474.0
aF-504.0
aF-479.0
aF-477.0
aF-476.0
aF-487.0
aF-483.0
aF-500.0
aF-478.0
aF-518.0
aF-460.0
aF-502.0
aF-472.0
aF-480.0
aF-478.0
aF-471.0
aF-492.0
aF-501.0
aF-467.0
aF-480.0
aF-489.0
aF-476.0
aF-490.0
aF-497.0
aF-485.0
aF-464.0
aF-519.0
aF-473.0
aF-479.0
aF-525.0
aF-471.0
aF-458.0
aF-473.0
aF-481.0
aF-509.0
aF-478.0
aF-492.0
aF-540.0
aF-484.0
aF-510.0
aF-467.0
aF-471.0
aF-479.0
aF-491.0
aF-529.0
aF-483.0
aF-489.0
aF-485.0
aF-464.0
aF-501.0
aF-507.0
aF-544.0
aF-475.0
aF-484.0
aF-458.0
aF-477.0
aF-478.0
aF-484.0
aF-515.0
aF-491.0
aF-482.0
aF-481.0
aF-481.0
aF-489.0
aF-486.0
aF-467.0
aF-489.0
aF-476.0
aF-472.0
aF-467.0
aF-485.0
aF-472.0
aF-477.0
aF-479.0
aF-479.0
aF-483.0
aF-479.0
aF535.0
aF-475.0
aF-494.0
aF-477.0
aF-478.0
aF-471.0
aF-478.0
aF-475.0
aF-478.0
aF-489.0
aF-476.0
aF547.0
aF-449.0
aF-533.0
aF-479.0
aF-474.0
aF-471.0
aF-485.0
aF-472.0
aF-482.0
aF-468.0
aF-475.0
aF-472.0
aF-489.0
aF-479.0
aF-478.0
aF-540.0
aF-474.0
aF-506.0
aF-486.0
aF-455.0
aF-486.0
aF-465.0
aF-495.0
aF-479.0
aF-482.0
aF-492.0
aF-516.0
aF-472.0
aF-510.0
aF-551.0
aF-474.0
aF-473.0
aF-480.0
aF-482.0
aF-482.0
aF-476.0
aF515.0
aF-579.0
aF-476.0
aF-470.0
aF-476.0
aF-506.0
aF-488.0
aF-486.0
aF-471.0
aF-483.0
aF-475.0
aF-495.0
aF-491.0
aF-479.0
aF-463.0
aF-531.0
aF-469.0
aF-490.0
aF-481.0
aF-521.0
aF-462.0
aF-470.0
aF-466.0
aF-487.0
aF-569.0
aF-505.0
aF-485.0
aF-489.0
aF-632.0
aF-485.0
aF-455.0
aF-501.0
aF-515.0
aF-467.0
aF-661.0
aF-486.0
aF-468.0
aF-511.0
aF-471.0
aF-470.0
aF-480.0
aF557.0
aF-478.0
aF-470.0
aF551.0
aF-536.0
aF521.0
aF-471.0
aF-490.0
aF-457.0
aF-487.0
aF-475.0
aF-479.0
aF-492.0
aF-480.0
aF-484.0
aF-476.0
aF-500.0
aF-532.0
aF-495.0
aF-490.0
aF-456.0
aF-522.0
aF-475.0
aF-472.0
aF525.0
aF-495.0
aF-488.0
aF-490.0
aF-488.0
aF-525.0
aF-491.0
aF-461.0
aF-491.0
aF541.0
aF-479.0
aF-464.0
aF-471.0
aF-467.0
aF-486.0
aF-470.0
aF-479.0
aF-480.0
aF-471.0
aF-465.0
aF-467.0
aF-481.0
aF-468.0
aF-464.0
aF-469.0
aF-513.0
aF-533.0
aF543.0
aF-493.0
aF547.0
aF-490.0
aF527.0
aF-463.0
aF-490.0
aF537.0
aF-530.0
aF549.0
aF-475.0
aF-485.0
aF553.0
aF-483.0
aF-466.0
aF-484.0
aF-455.0
aF-477.0
aF-492.0
aF-502.0
aF-563.0
aF-469.0
aF-486.0
aF-468.0
aF-482.0
aF-473.0
aF-460.0
aF-468.0
aF-466.0
aF531.0
aF-492.0
aF549.0
aF-460.0
aF-487.0
aF-476.0
aF-488.0
aF-469.0
aF-473.0
aF-474.0
aF-478.0
aF-484.0
aF-517.0
aF-529.0
aF-482.0
aF-492.0
aF-520.0
aF-463.0
aF-535.0
aF-587.0
aF-471.0
aF-469.0
aF527.0
aF537.0
aF-464.0
aF-477.0
aF-467.0
aF-560.0
aF-496.0
aF-488.0
aF-499.0
aF-484.0
aF-471.0
aF556.0
aF-486.0
aF-487.0
aF-514.0
aF-542.0
aF545.0
aF-507.0
aF-477.0
aF549.0
aF-523.0
aF-472.0
aF-468.0
aF-545.0
aF558.0
aF-482.0
aF-456.0
aF-473.0
aF-487.0
aF-480.0
aF531.0
aF-565.0
aF-477.0
aF-494.0
aF-495.0
aF-490.0
aF-475.0
aF-481.0
aF546.0
aF-483.0
aF-467.0
aF-480.0
aF549.0
aF-474.0
aF536.0
aF-462.0
aF-500.0
aF-493.0
aF531.0
aF555.0
aF-534.0
aF-474.0
aF-482.0
aF-542.0
aF-480.0
aF-476.0
aF-497.0
aF524.0
aF-488.0
aF-478.0
aF-529.0
aF-643.0
aF-468.0
aF-482.0
aF-494.0
aF-486.0
aF-486.0
aF-460.0
aF518.0
aF-495.0
aF557.0
aF553.0
aF-496.0
aF-461.0
aF-478.0
aF-510.0
aF-478.0
aF-498.0
aF-499.0
aF-461.0
aF-465.0
aF-485.0
aF-471.0
aF-483.0
aF-482.0
aF545.0
aF-464.0
aF555.0
aF-460.0
aF-477.0
aF-519.0
aF-487.0
aF-470.0
aF-485.0
aF-496.0
aF-455.0
aF-517.0
aF-521.0
aF-466.0
aF-494.0
aF-498.0
aF547.0
aF-501.0
aF-487.0
aF-493.0
aF547.0
aF-476.0
aF525.0
aF527.0
aF-490.0
aF-459.0
aF-491.0
aF549.0
aF-472.0
aF-483.0
aF-479.0
aF-533.0
aF-475.0
aF-486.0
aF-505.0
aF-499.0
aF-492.0
aF-471.0
aF553.0
aF-491.0
aF-491.0
aF-487.0
aF-525.0
aF-501.0
aF-452.0
aF534.0
aF-500.0
aF535.0
aF-484.0
aF-465.0
aF-489.0
aF-469.0
aF-493.0
aF-471.0
aF-490.0
aF-493.0
aF-492.0
aF-482.0
aF-495.0
aF-458.0
aF537.0
aF-458.0
aF-526.0
aF537.0
aF-478.0
aF414.0
aF-559.0
aF553.0
aF-471.0
aF-479.0
aF553.0
aF-480.0
aF-459.0
aF485.0
aF-489.0
aF547.0
aF533.0
aF-619.0
aF-499.0
aF-498.0
aF524.0
aF-612.0
aF-462.0
aF-491.0
aF-486.0
aF-468.0
aF-469.0
aF-455.0
aF-538.0
aF-522.0
aF-476.0
aF539.0
aF-462.0
aF537.0
aF-510.0
aF-475.0
aF556.0
aF457.0
aF-482.0
aF539.0
aF-528.0
aF-472.0
aF-502.0
aF-479.0
aF524.0
aF-460.0
aF-504.0
aF-468.0
aF542.0
aF537.0
aF517.0
aF-506.0
aF-482.0
aF-532.0
aF-484.0
aF553.0
aF-471.0
aF-490.0
aF-463.0
aF-528.0
aF-461.0
aF-471.0
aF-506.0
aF-457.0
aF535.0
aF-520.0
aF-466.0
aF-480.0
aF-455.0
aF-473.0
aF-488.0
aF-504.0
aF554.0
aF541.0
aF-477.0
aF-573.0
aF-466.0
aF-478.0
aF-549.0
aF542.0
aF-474.0
aF538.0
aF-479.0
aF-472.0
aF-530.0
aF-507.0
aF-497.0
aF479.0
aF-559.0
aF-507.0
aF-479.0
aF-484.0
aF-476.0
aF-466.0
aF-491.0
aF-486.0
aF-480.0
aF548.0
aF-498.0
aF553.0
aF-521.0
aF-478.0
aF-546.0
aF-487.0
aF519.0
aF-484.0
aF-480.0
aF-477.0
aF-474.0
aF546.0
aF557.0
aF541.0
aF-494.0
aF-549.0
aF-475.0
aF-464.0
aF-454.0
aF-488.0
aF-487.0
aF-485.0
aF-545.0
aF-556.0
aF-472.0
aF-470.0
aF-484.0
aF-511.0
aF-476.0
aF-490.0
aF-512.0
aF-522.0
aF-470.0
aF-505.0
aF-481.0
aF-476.0
aF-467.0
aF-470.0
aF-490.0
aF-469.0
aF-473.0
aF-461.0
aF-467.0
aF-512.0
aF-461.0
aF-480.0
aF-521.0
aF-471.0
aF-473.0
aF560.0
aF513.0
aF-480.0
aF-467.0
aF-485.0
aF559.0
aF-474.0
aF-504.0
aF-506.0
aF538.0
aF-508.0
aF-486.0
aF-499.0
aF-511.0
aF-478.0
aF-473.0
aF499.0
aF-578.0
aF-527.0
aF-478.0
aF-465.0
aF-471.0
aF-498.0
aF-464.0
aF-493.0
aF-494.0
aF-501.0
aF-472.0
aF-467.0
aF-471.0
aF556.0
aF-470.0
aF-462.0
aF549.0
aF-461.0
aF-510.0
aF-485.0
aF-481.0
aF-494.0
aF-471.0
aF509.0
aF-487.0
aF-481.0
aF-474.0
aF-485.0
aF-468.0
aF-484.0
aF-475.0
aF-530.0
aF-482.0
aF-483.0
aF-468.0
aF-496.0
aF-619.0
aF-489.0
aF555.0
aF457.0
aF-465.0
aF-466.0
aF560.0
aF543.0
aF-484.0
aF-524.0
aF-467.0
aF-468.0
aF-496.0
aF549.0
aF-481.0
aF-497.0
aF549.0
aF-478.0
aF547.0
aF411.0
aF553.0
aF-565.0
aF533.0
aF534.0
aF-487.0
aF-462.0
aF-507.0
aF-463.0
aF545.0
aF479.0
aF508.0
aF-507.0
aF-620.0
aF-462.0
aF-468.0
aF-489.0
aF-465.0
aF-458.0
aF-467.0
aF-476.0
aF-526.0
aF-553.0
aF-465.0
aF554.0
aF-467.0
aF-501.0
aF-511.0
aF-467.0
aF-478.0
aF-469.0
aF-552.0
aF-468.0
aF530.0
aF-455.0
aF-473.0
aF-465.0
aF-520.0
aF541.0
aF-479.0
aF525.0
aF-491.0
aF-485.0
aF-534.0
aF-616.0
aF-500.0
aF-496.0
aF532.0
aF-486.0
aF-629.0
aF-546.0
aF-472.0
aF-476.0
aF-467.0
aF537.0
aF-488.0
aF-505.0
aF-507.0
aF545.0
aF-497.0
aF-494.0
aF-452.0
aF543.0
aF-490.0
aF539.0
aF541.0
aF-485.0
aF-474.0
aF-487.0
aF-476.0
aF542.0
aF-506.0
aF554.0
aF-476.0
aF540.0
aF-464.0
aF549.0
aF549.0
aF-486.0
aF-482.0
aF551.0
aF535.0
aF-484.0
aF-475.0
aF-490.0
aF507.0
aF543.0
aF-531.0
aF-495.0
aF-467.0
aF-471.0
aF551.0
aF551.0
aF551.0
aF-474.0
aF-470.0
aF-480.0
aF555.0
aF534.0
aF-514.0
aF523.0
aF-478.0
aF-466.0
aF-503.0
aF-457.0
aF-487.0
aF-481.0
aF-483.0
aF-531.0
aF-502.0
aF-484.0
aF467.0
aF-465.0
aF-487.0
aF-478.0
aF-482.0
aF-457.0
aF-482.0
aF542.0
aF-500.0
aF-481.0
aF-484.0
aF551.0
aF539.0
aF-609.0
aF-477.0
aF-477.0
aF535.0
aF-493.0
aF-511.0
aF-475.0
aF537.0
aF-472.0
aF529.0
aF527.0
aF-462.0
aF545.0
aF-518.0
aF-481.0
aF-511.0
aF-457.0
aF-499.0
aF-472.0
aF531.0
aF-467.0
aF542.0
aF-470.0
aF-480.0
aF544.0
aF-501.0
aF555.0
aF-521.0
aF555.0
aF-472.0
aF412.0
aF536.0
aF482.0
aF-481.0
aF545.0
aF-482.0
aF551.0
aF521.0
aF538.0
aF445.0
aF530.0
aF-517.0
aF511.0
aF-457.0
aF511.0
aF-463.0
aF526.0
aF-525.0
aF-487.0
aF540.0
aF-501.0
aF-483.0
aF-491.0
aF-469.0
aF520.0
aF-565.0
aF539.0
aF522.0
aF536.0
aF536.0
aF-471.0
aF553.0
aF535.0
aF542.0
aF524.0
aF540.0
aF-571.0
aF-484.0
aF-455.0
aF-465.0
aF-488.0
aF-461.0
aF497.0
aF549.0
aF519.0
aF545.0
aF531.0
aF-539.0
aF533.0
aF538.0
aF-525.0
aF553.0
aF-471.0
aF-457.0
aF496.0
aF-454.0
aF-503.0
aF547.0
aF543.0
aF549.0
aF546.0
aF474.0
aF-511.0
aF541.0
aF555.0
aF552.0
aF550.0
aF-478.0
aF531.0
aF-462.0
aF-468.0
aF537.0
aF507.0
aF-460.0
aF493.0
aF547.0
aF543.0
aF-489.0
aF-495.0
aF-460.0
aF-491.0
aF557.0
aF-491.0
aF-488.0
aF-475.0
aF512.0
aF557.0
aF-497.0
aF528.0
aF553.0
aF539.0
aF544.0
aF547.0
aF-492.0
aF-476.0
aF552.0
aF-496.0
aF529.0
aF505.0
aF522.0
aF-507.0
aF-505.0
aF-476.0
aF515.0
aF553.0
aF-540.0
aF-474.0
aF-478.0
aF-485.0
aF538.0
aF538.0
aF-491.0
aF-454.0
aF-476.0
aF-479.0
aF522.0
aF547.0
aF547.0
aF536.0
aF-469.0
aF548.0
aF-473.0
aF554.0
aF524.0
aF-478.0
aF513.0
aF395.0
aF-509.0
aF555.0
aF540.0
aF-492.0
aF505.0
aF-504.0
aF528.0
aF-465.0
aF-480.0
aF-500.0
aF522.0
aF-466.0
aF-503.0
aF-480.0
aF-501.0
aF-481.0
aF541.0
aF518.0
aF-462.0
aF541.0
aF-505.0
aF-507.0
aF494.0
aF543.0
aF545.0
aF-475.0
aF-483.0
aF531.0
aF537.0
aF547.0
aF-487.0
aF531.0
aF-541.0
aF-469.0
aF-491.0
aF547.0
aF-500.0
aF481.0
aF519.0
aF-471.0
aF-488.0
aF-486.0
aF510.0
aF534.0
aF551.0
aF552.0
aF-562.0
aF539.0
aF528.0
aF-570.0
aF551.0
aF-468.0
aF547.0
aF529.0
aF533.0
aF511.0
aF541.0
aF-504.0
aF516.0
aF-517.0
aF518.0
aF-568.0
aF541.0
aF-452.0
aF549.0
aF547.0
aF-526.0
aF539.0
aF540.0
aF531.0
aF527.0
aF-527.0
aF545.0
aF-490.0
aF547.0
aF-493.0
aF-544.0
aF-455.0
aF507.0
aF423.0
aF542.0
aF541.0
aF508.0
aF502.0
aF-475.0
aF-535.0
aF539.0
aF-561.0
aF531.0
aF495.0
aF529.0
aF-480.0
aF544.0
aF549.0
aF555.0
aF-465.0
aF519.0
aF529.0
aF-455.0
aF512.0
aF546.0
aF555.0
aF514.0
aF-483.0
aF519.0
aF-468.0
aF551.0
aF472.0
aF532.0
aF517.0
aF517.0
aF-474.0
aF546.0
aF361.0
aF518.0
aF536.0
aF522.0
aF-586.0
aF543.0
aF557.0
aF542.0
aF556.0
aF551.0
aF539.0
aF-545.0
aF541.0
aF540.0
aF-494.0
aF-478.0
aF548.0
aF-536.0
aF-494.0
aF513.0
aF-499.0
aF-490.0
aF548.0
aF-513.0
aF-477.0
aF-505.0
aF545.0
aF502.0
aF546.0
aF-477.0
aF518.0
aF528.0
aF-498.0
aF513.0
aF523.0
aF-490.0
aF520.0
aF519.0
aF-478.0
aF540.0
aF506.0
aF542.0
aF-491.0
aF515.0
aF-514.0
aF553.0
aF545.0
aF-484.0
aF545.0
aF-492.0
aF553.0
aF556.0
aF517.0
aF-537.0
aF545.0
aF-467.0
aF549.0
aF555.0
aF542.0
aF525.0
aF-518.0
aF541.0
aF538.0
aF-494.0
aF529.0
aF538.0
aF552.0
aF542.0
aF536.0
aF-462.0
aF529.0
aF502.0
aF529.0
aF-489.0
aF538.0
aF520.0
aF-475.0
aF530.0
aF532.0
aF-474.0
aF547.0
aF519.0
aF489.0
aF539.0
aF548.0
aF-497.0
aF-483.0
aF543.0
aF535.0
aF547.0
aF555.0
aF529.0
aF520.0
aF515.0
aF540.0
aF545.0
aF-459.0
aF531.0
aF547.0
aF477.0
aF-471.0
aF-458.0
aF535.0
aF549.0
aF-506.0
aF-513.0
aF530.0
aF557.0
aF539.0
aF-462.0
aF506.0
aF491.0
aF551.0
aF-475.0
aF-478.0
aF-469.0
aF540.0
aF-463.0
aF522.0
aF545.0
aF-472.0
aF-514.0
aF543.0
aF537.0
aF521.0
aF545.0
aF-485.0
aF-467.0
aF-476.0
aF-479.0
aF-450.0
aF524.0
aF538.0
aF544.0
aF-469.0
aF540.0
aF-469.0
aF542.0
aF-494.0
aF531.0
aF537.0
aF-455.0
aF-501.0
aF535.0
aF522.0
aF509.0
aF-470.0
aF512.0
aF499.0
aF-488.0
aF-482.0
aF453.0
aF-469.0
aF511.0
aF-512.0
aF547.0
aF527.0
aF-497.0
aF514.0
aF-468.0
aF-574.0
aF543.0
aF535.0
aF515.0
aF537.0
aF-499.0
aF541.0
aF543.0
aF554.0
aF522.0
aF541.0
aF-480.0
aF-475.0
aF521.0
aF-507.0
aF537.0
aF541.0
aF550.0
aF522.0
aF-469.0
aF506.0
aF538.0
aF543.0
aF527.0
aF521.0
aF535.0
aF-475.0
aF394.0
aF532.0
aF538.0
aF543.0
aF491.0
aF-467.0
aF524.0
aF-467.0
aF537.0
aF504.0
aF478.0
aF387.0
aF561.0
aF521.0
aF531.0
aF-481.0
aF524.0
aF535.0
aF-484.0
aF538.0
aF561.0
aF549.0
aF555.0
aF493.0
aF489.0
aF531.0
aF-478.0
aF527.0
aF541.0
aF542.0
aF-507.0
aF-462.0
aF-463.0
aF541.0
aF538.0
aF550.0
aF542.0
aF539.0
aF553.0
aF-487.0
aF-480.0
aF546.0
aF-481.0
aF539.0
aF540.0
aF481.0
aF490.0
aF553.0
aF-488.0
aF535.0
aF-492.0
aF510.0
aF547.0
aF503.0
aF540.0
aF551.0
aF-496.0
aF-464.0
aF504.0
aF539.0
aF517.0
aF527.0
aF-498.0
aF545.0
aF-486.0
aF529.0
aF524.0
aF-501.0
aF534.0
aF554.0
aF514.0
aF501.0
aF545.0
aF539.0
aF514.0
aF541.0
aF550.0
aF-510.0
aF536.0
aF536.0
aF530.0
aF544.0
aF489.0
aF547.0
aF541.0
aF-484.0
aF538.0
aF545.0
aF533.0
aF526.0
aF468.0
aF532.0
aF-469.0
aF539.0
aF523.0
aF-465.0
aF-478.0
aF494.0
aF523.0
aF555.0
aF-485.0
aF526.0
aF519.0
aF537.0
aF529.0
aF-501.0
aF520.0
aF557.0
aF549.0
aF525.0
aF518.0
aF-479.0
aF555.0
aF538.0
aF545.0
aF541.0
aF529.0
aF515.0
aF533.0
aF550.0
aF-499.0
aF-586.0
aF511.0
aF532.0
aF541.0
aF-499.0
aF525.0
aF547.0
aF-503.0
aF549.0
aF424.0
aF553.0
aF538.0
aF517.0
aF535.0
aF553.0
aF548.0
aF531.0
aF549.0
aF533.0
aF-595.0
aF517.0
aF-479.0
aF523.0
aF532.0
aF-484.0
aF486.0
aF537.0
aF518.0
aF534.0
aF-473.0
aF-482.0
aF-485.0
aF522.0
aF545.0
aF505.0
aF-501.0
aF555.0
aF547.0
aF520.0
aF538.0
aF536.0
aF549.0
aF521.0
aF513.0
aF541.0
aF549.0
aF-467.0
aF471.0
aF547.0
aF-491.0
aF-484.0
aF-476.0
aF526.0
aF551.0
aF553.0
aF557.0
aF549.0
aF-552.0
aF-543.0
aF533.0
aF529.0
aF540.0
aF518.0
aF539.0
aF541.0
aF542.0
aF490.0
aF547.0
aF530.0
aF-463.0
aF543.0
aF531.0
aF534.0
aF543.0
aF-483.0
aF508.0
aF537.0
aF433.0
aF507.0
aF514.0
aF522.0
aF549.0
aF-499.0
aF545.0
aF-469.0
aF496.0
aF525.0
aF-508.0
aF504.0
aF522.0
aF534.0
aF501.0
aF509.0
aF547.0
aF552.0
aF541.0
aF491.0
aF-524.0
aF517.0
aF523.0
aF543.0
aF-503.0
aF497.0
aF545.0
aF543.0
aF556.0
aF555.0
aF514.0
aF555.0
aF529.0
aF509.0
aF553.0
aF543.0
aF521.0
aF555.0
aF-526.0
aF536.0
aF530.0
aF546.0
aF-463.0
aF549.0
aF551.0
aF515.0
aF502.0
aF477.0
aF548.0
aF538.0
aF539.0
aF509.0
aF496.0
aF537.0
aF539.0
aF549.0
aF531.0
aF454.0
aF533.0
aF548.0
aF549.0
aF548.0
aF547.0
aF537.0
aF536.0
aF-509.0
aF-489.0
aF557.0
aF555.0
aF533.0
aF539.0
aF535.0
aF-464.0
aF512.0
aF-480.0
aF537.0
aF553.0
aF-467.0
aF-491.0
aF-478.0
aF503.0
aF-497.0
aF495.0
aF542.0
aF536.0
aF550.0
aF525.0
aF546.0
aF-529.0
aF-507.0
aF518.0
aF-467.0
aF525.0
aF515.0
aF548.0
aF-511.0
aF516.0
aF-463.0
aF-487.0
aF519.0
aF537.0
aF-482.0
aF508.0
aF543.0
aF-476.0
aF550.0
aF551.0
aF541.0
aF482.0
aF555.0
aF-502.0
aF535.0
aF-470.0
aF536.0
aF-491.0
aF551.0
aF557.0
aF511.0
aF-480.0
aF550.0
aF474.0
aF547.0
aF-468.0
aF-622.0
aF555.0
aF549.0
aF438.0
aF-462.0
aF541.0
aF526.0
aF-468.0
aF492.0
aF536.0
aF-484.0
aF-482.0
aF542.0
aF543.0
aF-474.0
aF543.0
aF478.0
aF-463.0
aF522.0
aF-473.0
aF515.0
aF547.0
aF550.0
aF-485.0
aF533.0
aF549.0
aF-474.0
aF545.0
aF460.0
aF535.0
aF544.0
aF551.0
aF529.0
aF480.0
aF502.0
aF558.0
aF540.0
aF537.0
aF505.0
aF513.0
aF531.0
aF522.0
aF549.0
aF512.0
aF552.0
aF-475.0
aF533.0
aF540.0
aF554.0
aF542.0
aF537.0
aF543.0
aF551.0
aF517.0
aF505.0
aF528.0
aF542.0
aF-470.0
aF556.0
aF533.0
aF529.0
aF520.0
aF549.0
aF516.0
aF539.0
aF544.0
aF558.0
aF529.0
aF524.0
aF477.0
aF524.0
aF529.0
aF545.0
aF559.0
aF487.0
aF539.0
aF556.0
aF501.0
aF547.0
aF504.0
aF553.0
aF456.0
aF553.0
aF539.0
aF-504.0
aF-489.0
aF530.0
aF-469.0
aF537.0
aF531.0
aF552.0
aF546.0
aF489.0
aF529.0
aF531.0
aF532.0
aF473.0
aF-466.0
aF497.0
aF558.0
aF554.0
aF537.0
aF549.0
aF535.0
aF541.0
aF550.0
aF533.0
aF525.0
aF531.0
aF547.0
aF533.0
aF521.0
aF-458.0
aF536.0
aF-507.0
aF-461.0
aF553.0
aF541.0
aF525.0
aF551.0
aF531.0
aF516.0
aF-558.0
aF539.0
aF-547.0
aF538.0
aF485.0
aF543.0
aF527.0
aF540.0
aF547.0
aF517.0
aF-482.0
aF494.0
aF-520.0
aF513.0
aF551.0
aF-481.0
aF548.0
aF-480.0
aF-486.0
aF528.0
aF503.0
aF467.0
aF536.0
aF540.0
aF541.0
aF532.0
aF534.0
aF-481.0
aF551.0
aF545.0
aF-466.0
aF549.0
aF521.0
aF544.0
aF543.0
aF526.0
aF537.0
aF511.0
aF-653.0
aF517.0
aF530.0
aF516.0
aF499.0
aF551.0
aF527.0
aF-506.0
aF489.0
aF508.0
aF503.0
aF-551.0
aF548.0
aF522.0
aF-489.0
aF521.0
aF-504.0
aF-505.0
aF543.0
aF558.0
aF538.0
aF-472.0
aF549.0
aF518.0
aF538.0
aF507.0
aF501.0
aF-530.0
aF533.0
aF532.0
aF-484.0
aF541.0
aF502.0
aF522.0
aF-477.0
aF520.0
aF547.0
aF527.0
aF529.0
aF493.0
aF513.0
aF547.0
aF537.0
aF525.0
aF489.0
aF523.0
aF552.0
aF561.0
aF-477.0
aF541.0
aF546.0
aF541.0
aF547.0
aF516.0
aF538.0
aF545.0
aF520.0
aF522.0
aF535.0
aF458.0
aF544.0
aF-472.0
aF482.0
aF495.0
aF503.0
aF512.0
aF547.0
aF523.0
aF549.0
aF-492.0
aF-472.0
aF549.0
aF528.0
aF506.0
aF554.0
aF536.0
aF535.0
aF-505.0
aF547.0
aF541.0
aF-495.0
aF531.0
aF547.0
aF542.0
aF537.0
aF463.0
aF-501.0
aF-489.0
aF510.0
aF541.0
aF482.0
aF526.0
aF-473.0
aF536.0
aF478.0
aF550.0
aF524.0
aF495.0
aF527.0
aF503.0
aF519.0
aF531.0
aF-492.0
aF543.0
aF534.0
aF514.0
aF465.0
aF-601.0
aF519.0
aF-481.0
aF494.0
aF545.0
aF549.0
aF-502.0
aF536.0
aF515.0
aF545.0
aF-505.0
aF531.0
aF521.0
aF436.0
aF537.0
aF533.0
aF549.0
aF492.0
aF539.0
aF553.0
aF-492.0
aF544.0
aF513.0
aF504.0
aF550.0
aF537.0
aF547.0
aF-514.0
aF524.0
aF559.0
aF530.0
aF-493.0
aF537.0
aF526.0
aF528.0
aF527.0
aF515.0
aF489.0
aF538.0
aF-496.0
aF542.0
aF539.0
aF553.0
aF543.0
aF531.0
aF517.0
aF545.0
aF518.0
aF536.0
aF501.0
aF551.0
aF539.0
aF540.0
aF511.0
aF539.0
aF548.0
aF547.0
aF538.0
aF-572.0
aF516.0
aF533.0
aF523.0
aF519.0
aF-459.0
aF547.0
aF505.0
aF516.0
aF539.0
aF516.0
aF546.0
aF537.0
aF-502.0
aF534.0
aF546.0
aF545.0
aF531.0
aF514.0
aF524.0
aF518.0
aF530.0
aF547.0
aF539.0
aF536.0
aF547.0
aF-478.0
aF541.0
aF483.0
aF529.0
aF541.0
aF549.0
aF-474.0
aF519.0
aF544.0
aF551.0
aF-487.0
aF518.0
aF-471.0
aF553.0
aF527.0
aF475.0
aF549.0
aF559.0
aF423.0
aF-654.0
aF555.0
aF525.0
aF534.0
aF530.0
aF530.0
aF497.0
aF539.0
aF543.0
aF544.0
aF518.0
aF-492.0
aF-453.0
aF557.0
aF-483.0
aF507.0
aF555.0
aF-475.0
aF517.0
aF511.0
aF546.0
aF545.0
aF549.0
aF540.0
aF449.0
aF535.0
aF525.0
aF-611.0
aF-520.0
aF476.0
aF-474.0
aF-489.0
aF-499.0
aF491.0
aF-470.0
aF-521.0
aF-485.0
aF521.0
aF473.0
aF-565.0
aF522.0
aF543.0
aF510.0
aF547.0
aF-569.0
aF541.0
aF534.0
aF-477.0
aF506.0
aF531.0
aF-483.0
aF508.0
aF531.0
aF503.0
aF542.0
aF539.0
aF546.0
aF-490.0
aF545.0
aF555.0
aF513.0
aF524.0
aF550.0
asS'reward'
p3
(lp4
I-524
aI-511
aI-518
aI-522
aI-487
aI-474
aI-487
aI-477
aI-486
aI-481
aI-509
aI-490
aI-481
aI-481
aI-486
aI-468
aI-539
aI-485
aI-510
aI-471
aI-501
aI-475
aI-489
aI-531
aI-487
aI-510
aI-472
aI-469
aI-510
aI-558
aI-471
aI-569
aI-485
aI-494
aI-483
aI-474
aI-504
aI-479
aI-477
aI-476
aI-487
aI-483
aI-500
aI-478
aI-518
aI-460
aI-502
aI-472
aI-480
aI-478
aI-471
aI-492
aI-501
aI-467
aI-480
aI-489
aI-476
aI-490
aI-497
aI-485
aI-464
aI-519
aI-473
aI-479
aI-525
aI-471
aI-458
aI-473
aI-481
aI-509
aI-478
aI-492
aI-540
aI-484
aI-510
aI-467
aI-471
aI-479
aI-491
aI-529
aI-483
aI-489
aI-485
aI-464
aI-501
aI-507
aI-544
aI-475
aI-484
aI-458
aI-477
aI-478
aI-484
aI-515
aI-491
aI-482
aI-481
aI-481
aI-489
aI-486
aI-467
aI-489
aI-476
aI-472
aI-467
aI-485
aI-472
aI-477
aI-479
aI-479
aI-483
aI-479
aI5035
aI-475
aI-494
aI-477
aI-478
aI-471
aI-478
aI-475
aI-478
aI-489
aI-476
aI5047
aI-449
aI-533
aI-479
aI-474
aI-471
aI-485
aI-472
aI-482
aI-468
aI-475
aI-472
aI-489
aI-479
aI-478
aI-540
aI-474
aI-506
aI-486
aI-455
aI-486
aI-465
aI-495
aI-479
aI-482
aI-492
aI-516
aI-472
aI-510
aI-551
aI-474
aI-473
aI-480
aI-482
aI-482
aI-476
aI5015
aI-579
aI-476
aI-470
aI-476
aI-506
aI-488
aI-486
aI-471
aI-483
aI-475
aI-495
aI-491
aI-479
aI-463
aI-531
aI-469
aI-490
aI-481
aI-521
aI-462
aI-470
aI-466
aI-487
aI-569
aI-505
aI-485
aI-489
aI-632
aI-485
aI-455
aI-501
aI-515
aI-467
aI-661
aI-486
aI-468
aI-511
aI-471
aI-470
aI-480
aI5057
aI-478
aI-470
aI5051
aI-536
aI5021
aI-471
aI-490
aI-457
aI-487
aI-475
aI-479
aI-492
aI-480
aI-484
aI-476
aI-500
aI-532
aI-495
aI-490
aI-456
aI-522
aI-475
aI-472
aI5025
aI-495
aI-488
aI-490
aI-488
aI-525
aI-491
aI-461
aI-491
aI5041
aI-479
aI-464
aI-471
aI-467
aI-486
aI-470
aI-479
aI-480
aI-471
aI-465
aI-467
aI-481
aI-468
aI-464
aI-469
aI-513
aI-533
aI5043
aI-493
aI5047
aI-490
aI5027
aI-463
aI-490
aI5037
aI-530
aI5049
aI-475
aI-485
aI5053
aI-483
aI-466
aI-484
aI-455
aI-477
aI-492
aI-502
aI-563
aI-469
aI-486
aI-468
aI-482
aI-473
aI-460
aI-468
aI-466
aI5031
aI-492
aI5049
aI-460
aI-487
aI-476
aI-488
aI-469
aI-473
aI-474
aI-478
aI-484
aI-517
aI-529
aI-482
aI-492
aI-520
aI-463
aI-535
aI-587
aI-471
aI-469
aI5027
aI5037
aI-464
aI-477
aI-467
aI-560
aI-496
aI-488
aI-499
aI-484
aI-471
aI5056
aI-486
aI-487
aI-514
aI-542
aI5045
aI-507
aI-477
aI5049
aI-523
aI-472
aI-468
aI-545
aI5058
aI-482
aI-456
aI-473
aI-487
aI-480
aI5031
aI-565
aI-477
aI-494
aI-495
aI-490
aI-475
aI-481
aI5046
aI-483
aI-467
aI-480
aI5049
aI-474
aI5036
aI-462
aI-500
aI-493
aI5031
aI5055
aI-534
aI-474
aI-482
aI-542
aI-480
aI-476
aI-497
aI5024
aI-488
aI-478
aI-529
aI-643
aI-468
aI-482
aI-494
aI-486
aI-486
aI-460
aI5018
aI-495
aI5057
aI5053
aI-496
aI-461
aI-478
aI-510
aI-478
aI-498
aI-499
aI-461
aI-465
aI-485
aI-471
aI-483
aI-482
aI5045
aI-464
aI5055
aI-460
aI-477
aI-519
aI-487
aI-470
aI-485
aI-496
aI-455
aI-517
aI-521
aI-466
aI-494
aI-498
aI5047
aI-501
aI-487
aI-493
aI5047
aI-476
aI5025
aI5027
aI-490
aI-459
aI-491
aI5049
aI-472
aI-483
aI-479
aI-533
aI-475
aI-486
aI-505
aI-499
aI-492
aI-471
aI5053
aI-491
aI-491
aI-487
aI-525
aI-501
aI-452
aI5034
aI-500
aI5035
aI-484
aI-465
aI-489
aI-469
aI-493
aI-471
aI-490
aI-493
aI-492
aI-482
aI-495
aI-458
aI5037
aI-458
aI-526
aI5037
aI-478
aI4914
aI-559
aI5053
aI-471
aI-479
aI5053
aI-480
aI-459
aI4985
aI-489
aI5047
aI5033
aI-619
aI-499
aI-498
aI5024
aI-612
aI-462
aI-491
aI-486
aI-468
aI-469
aI-455
aI-538
aI-522
aI-476
aI5039
aI-462
aI5037
aI-510
aI-475
aI5056
aI4957
aI-482
aI5039
aI-528
aI-472
aI-502
aI-479
aI5024
aI-460
aI-504
aI-468
aI5042
aI5037
aI5017
aI-506
aI-482
aI-532
aI-484
aI5053
aI-471
aI-490
aI-463
aI-528
aI-461
aI-471
aI-506
aI-457
aI5035
aI-520
aI-466
aI-480
aI-455
aI-473
aI-488
aI-504
aI5054
aI5041
aI-477
aI-573
aI-466
aI-478
aI-549
aI5042
aI-474
aI5038
aI-479
aI-472
aI-530
aI-507
aI-497
aI4979
aI-559
aI-507
aI-479
aI-484
aI-476
aI-466
aI-491
aI-486
aI-480
aI5048
aI-498
aI5053
aI-521
aI-478
aI-546
aI-487
aI5019
aI-484
aI-480
aI-477
aI-474
aI5046
aI5057
aI5041
aI-494
aI-549
aI-475
aI-464
aI-454
aI-488
aI-487
aI-485
aI-545
aI-556
aI-472
aI-470
aI-484
aI-511
aI-476
aI-490
aI-512
aI-522
aI-470
aI-505
aI-481
aI-476
aI-467
aI-470
aI-490
aI-469
aI-473
aI-461
aI-467
aI-512
aI-461
aI-480
aI-521
aI-471
aI-473
aI5060
aI5013
aI-480
aI-467
aI-485
aI5059
aI-474
aI-504
aI-506
aI5038
aI-508
aI-486
aI-499
aI-511
aI-478
aI-473
aI4999
aI-578
aI-527
aI-478
aI-465
aI-471
aI-498
aI-464
aI-493
aI-494
aI-501
aI-472
aI-467
aI-471
aI5056
aI-470
aI-462
aI5049
aI-461
aI-510
aI-485
aI-481
aI-494
aI-471
aI5009
aI-487
aI-481
aI-474
aI-485
aI-468
aI-484
aI-475
aI-530
aI-482
aI-483
aI-468
aI-496
aI-619
aI-489
aI5055
aI4957
aI-465
aI-466
aI5060
aI5043
aI-484
aI-524
aI-467
aI-468
aI-496
aI5049
aI-481
aI-497
aI5049
aI-478
aI5047
aI4911
aI5053
aI-565
aI5033
aI5034
aI-487
aI-462
aI-507
aI-463
aI5045
aI4979
aI5008
aI-507
aI-620
aI-462
aI-468
aI-489
aI-465
aI-458
aI-467
aI-476
aI-526
aI-553
aI-465
aI5054
aI-467
aI-501
aI-511
aI-467
aI-478
aI-469
aI-552
aI-468
aI5030
aI-455
aI-473
aI-465
aI-520
aI5041
aI-479
aI5025
aI-491
aI-485
aI-534
aI-616
aI-500
aI-496
aI5032
aI-486
aI-629
aI-546
aI-472
aI-476
aI-467
aI5037
aI-488
aI-505
aI-507
aI5045
aI-497
aI-494
aI-452
aI5043
aI-490
aI5039
aI5041
aI-485
aI-474
aI-487
aI-476
aI5042
aI-506
aI5054
aI-476
aI5040
aI-464
aI5049
aI5049
aI-486
aI-482
aI5051
aI5035
aI-484
aI-475
aI-490
aI5007
aI5043
aI-531
aI-495
aI-467
aI-471
aI5051
aI5051
aI5051
aI-474
aI-470
aI-480
aI5055
aI5034
aI-514
aI5023
aI-478
aI-466
aI-503
aI-457
aI-487
aI-481
aI-483
aI-531
aI-502
aI-484
aI4967
aI-465
aI-487
aI-478
aI-482
aI-457
aI-482
aI5042
aI-500
aI-481
aI-484
aI5051
aI5039
aI-609
aI-477
aI-477
aI5035
aI-493
aI-511
aI-475
aI5037
aI-472
aI5029
aI5027
aI-462
aI5045
aI-518
aI-481
aI-511
aI-457
aI-499
aI-472
aI5031
aI-467
aI5042
aI-470
aI-480
aI5044
aI-501
aI5055
aI-521
aI5055
aI-472
aI4912
aI5036
aI4982
aI-481
aI5045
aI-482
aI5051
aI5021
aI5038
aI4945
aI5030
aI-517
aI5011
aI-457
aI5011
aI-463
aI5026
aI-525
aI-487
aI5040
aI-501
aI-483
aI-491
aI-469
aI5020
aI-565
aI5039
aI5022
aI5036
aI5036
aI-471
aI5053
aI5035
aI5042
aI5024
aI5040
aI-571
aI-484
aI-455
aI-465
aI-488
aI-461
aI4997
aI5049
aI5019
aI5045
aI5031
aI-539
aI5033
aI5038
aI-525
aI5053
aI-471
aI-457
aI4996
aI-454
aI-503
aI5047
aI5043
aI5049
aI5046
aI4974
aI-511
aI5041
aI5055
aI5052
aI5050
aI-478
aI5031
aI-462
aI-468
aI5037
aI5007
aI-460
aI4993
aI5047
aI5043
aI-489
aI-495
aI-460
aI-491
aI5057
aI-491
aI-488
aI-475
aI5012
aI5057
aI-497
aI5028
aI5053
aI5039
aI5044
aI5047
aI-492
aI-476
aI5052
aI-496
aI5029
aI5005
aI5022
aI-507
aI-505
aI-476
aI5015
aI5053
aI-540
aI-474
aI-478
aI-485
aI5038
aI5038
aI-491
aI-454
aI-476
aI-479
aI5022
aI5047
aI5047
aI5036
aI-469
aI5048
aI-473
aI5054
aI5024
aI-478
aI5013
aI4895
aI-509
aI5055
aI5040
aI-492
aI5005
aI-504
aI5028
aI-465
aI-480
aI-500
aI5022
aI-466
aI-503
aI-480
aI-501
aI-481
aI5041
aI5018
aI-462
aI5041
aI-505
aI-507
aI4994
aI5043
aI5045
aI-475
aI-483
aI5031
aI5037
aI5047
aI-487
aI5031
aI-541
aI-469
aI-491
aI5047
aI-500
aI4981
aI5019
aI-471
aI-488
aI-486
aI5010
aI5034
aI5051
aI5052
aI-562
aI5039
aI5028
aI-570
aI5051
aI-468
aI5047
aI5029
aI5033
aI5011
aI5041
aI-504
aI5016
aI-517
aI5018
aI-568
aI5041
aI-452
aI5049
aI5047
aI-526
aI5039
aI5040
aI5031
aI5027
aI-527
aI5045
aI-490
aI5047
aI-493
aI-544
aI-455
aI5007
aI4923
aI5042
aI5041
aI5008
aI5002
aI-475
aI-535
aI5039
aI-561
aI5031
aI4995
aI5029
aI-480
aI5044
aI5049
aI5055
aI-465
aI5019
aI5029
aI-455
aI5012
aI5046
aI5055
aI5014
aI-483
aI5019
aI-468
aI5051
aI4972
aI5032
aI5017
aI5017
aI-474
aI5046
aI4861
aI5018
aI5036
aI5022
aI-586
aI5043
aI5057
aI5042
aI5056
aI5051
aI5039
aI-545
aI5041
aI5040
aI-494
aI-478
aI5048
aI-536
aI-494
aI5013
aI-499
aI-490
aI5048
aI-513
aI-477
aI-505
aI5045
aI5002
aI5046
aI-477
aI5018
aI5028
aI-498
aI5013
aI5023
aI-490
aI5020
aI5019
aI-478
aI5040
aI5006
aI5042
aI-491
aI5015
aI-514
aI5053
aI5045
aI-484
aI5045
aI-492
aI5053
aI5056
aI5017
aI-537
aI5045
aI-467
aI5049
aI5055
aI5042
aI5025
aI-518
aI5041
aI5038
aI-494
aI5029
aI5038
aI5052
aI5042
aI5036
aI-462
aI5029
aI5002
aI5029
aI-489
aI5038
aI5020
aI-475
aI5030
aI5032
aI-474
aI5047
aI5019
aI4989
aI5039
aI5048
aI-497
aI-483
aI5043
aI5035
aI5047
aI5055
aI5029
aI5020
aI5015
aI5040
aI5045
aI-459
aI5031
aI5047
aI4977
aI-471
aI-458
aI5035
aI5049
aI-506
aI-513
aI5030
aI5057
aI5039
aI-462
aI5006
aI4991
aI5051
aI-475
aI-478
aI-469
aI5040
aI-463
aI5022
aI5045
aI-472
aI-514
aI5043
aI5037
aI5021
aI5045
aI-485
aI-467
aI-476
aI-479
aI-450
aI5024
aI5038
aI5044
aI-469
aI5040
aI-469
aI5042
aI-494
aI5031
aI5037
aI-455
aI-501
aI5035
aI5022
aI5009
aI-470
aI5012
aI4999
aI-488
aI-482
aI4953
aI-469
aI5011
aI-512
aI5047
aI5027
aI-497
aI5014
aI-468
aI-574
aI5043
aI5035
aI5015
aI5037
aI-499
aI5041
aI5043
aI5054
aI5022
aI5041
aI-480
aI-475
aI5021
aI-507
aI5037
aI5041
aI5050
aI5022
aI-469
aI5006
aI5038
aI5043
aI5027
aI5021
aI5035
aI-475
aI4894
aI5032
aI5038
aI5043
aI4991
aI-467
aI5024
aI-467
aI5037
aI5004
aI4978
aI4887
aI5061
aI5021
aI5031
aI-481
aI5024
aI5035
aI-484
aI5038
aI5061
aI5049
aI5055
aI4993
aI4989
aI5031
aI-478
aI5027
aI5041
aI5042
aI-507
aI-462
aI-463
aI5041
aI5038
aI5050
aI5042
aI5039
aI5053
aI-487
aI-480
aI5046
aI-481
aI5039
aI5040
aI4981
aI4990
aI5053
aI-488
aI5035
aI-492
aI5010
aI5047
aI5003
aI5040
aI5051
aI-496
aI-464
aI5004
aI5039
aI5017
aI5027
aI-498
aI5045
aI-486
aI5029
aI5024
aI-501
aI5034
aI5054
aI5014
aI5001
aI5045
aI5039
aI5014
aI5041
aI5050
aI-510
aI5036
aI5036
aI5030
aI5044
aI4989
aI5047
aI5041
aI-484
aI5038
aI5045
aI5033
aI5026
aI4968
aI5032
aI-469
aI5039
aI5023
aI-465
aI-478
aI4994
aI5023
aI5055
aI-485
aI5026
aI5019
aI5037
aI5029
aI-501
aI5020
aI5057
aI5049
aI5025
aI5018
aI-479
aI5055
aI5038
aI5045
aI5041
aI5029
aI5015
aI5033
aI5050
aI-499
aI-586
aI5011
aI5032
aI5041
aI-499
aI5025
aI5047
aI-503
aI5049
aI4924
aI5053
aI5038
aI5017
aI5035
aI5053
aI5048
aI5031
aI5049
aI5033
aI-595
aI5017
aI-479
aI5023
aI5032
aI-484
aI4986
aI5037
aI5018
aI5034
aI-473
aI-482
aI-485
aI5022
aI5045
aI5005
aI-501
aI5055
aI5047
aI5020
aI5038
aI5036
aI5049
aI5021
aI5013
aI5041
aI5049
aI-467
aI4971
aI5047
aI-491
aI-484
aI-476
aI5026
aI5051
aI5053
aI5057
aI5049
aI-552
aI-543
aI5033
aI5029
aI5040
aI5018
aI5039
aI5041
aI5042
aI4990
aI5047
aI5030
aI-463
aI5043
aI5031
aI5034
aI5043
aI-483
aI5008
aI5037
aI4933
aI5007
aI5014
aI5022
aI5049
aI-499
aI5045
aI-469
aI4996
aI5025
aI-508
aI5004
aI5022
aI5034
aI5001
aI5009
aI5047
aI5052
aI5041
aI4991
aI-524
aI5017
aI5023
aI5043
aI-503
aI4997
aI5045
aI5043
aI5056
aI5055
aI5014
aI5055
aI5029
aI5009
aI5053
aI5043
aI5021
aI5055
aI-526
aI5036
aI5030
aI5046
aI-463
aI5049
aI5051
aI5015
aI5002
aI4977
aI5048
aI5038
aI5039
aI5009
aI4996
aI5037
aI5039
aI5049
aI5031
aI4954
aI5033
aI5048
aI5049
aI5048
aI5047
aI5037
aI5036
aI-509
aI-489
aI5057
aI5055
aI5033
aI5039
aI5035
aI-464
aI5012
aI-480
aI5037
aI5053
aI-467
aI-491
aI-478
aI5003
aI-497
aI4995
aI5042
aI5036
aI5050
aI5025
aI5046
aI-529
aI-507
aI5018
aI-467
aI5025
aI5015
aI5048
aI-511
aI5016
aI-463
aI-487
aI5019
aI5037
aI-482
aI5008
aI5043
aI-476
aI5050
aI5051
aI5041
aI4982
aI5055
aI-502
aI5035
aI-470
aI5036
aI-491
aI5051
aI5057
aI5011
aI-480
aI5050
aI4974
aI5047
aI-468
aI-622
aI5055
aI5049
aI4938
aI-462
aI5041
aI5026
aI-468
aI4992
aI5036
aI-484
aI-482
aI5042
aI5043
aI-474
aI5043
aI4978
aI-463
aI5022
aI-473
aI5015
aI5047
aI5050
aI-485
aI5033
aI5049
aI-474
aI5045
aI4960
aI5035
aI5044
aI5051
aI5029
aI4980
aI5002
aI5058
aI5040
aI5037
aI5005
aI5013
aI5031
aI5022
aI5049
aI5012
aI5052
aI-475
aI5033
aI5040
aI5054
aI5042
aI5037
aI5043
aI5051
aI5017
aI5005
aI5028
aI5042
aI-470
aI5056
aI5033
aI5029
aI5020
aI5049
aI5016
aI5039
aI5044
aI5058
aI5029
aI5024
aI4977
aI5024
aI5029
aI5045
aI5059
aI4987
aI5039
aI5056
aI5001
aI5047
aI5004
aI5053
aI4956
aI5053
aI5039
aI-504
aI-489
aI5030
aI-469
aI5037
aI5031
aI5052
aI5046
aI4989
aI5029
aI5031
aI5032
aI4973
aI-466
aI4997
aI5058
aI5054
aI5037
aI5049
aI5035
aI5041
aI5050
aI5033
aI5025
aI5031
aI5047
aI5033
aI5021
aI-458
aI5036
aI-507
aI-461
aI5053
aI5041
aI5025
aI5051
aI5031
aI5016
aI-558
aI5039
aI-547
aI5038
aI4985
aI5043
aI5027
aI5040
aI5047
aI5017
aI-482
aI4994
aI-520
aI5013
aI5051
aI-481
aI5048
aI-480
aI-486
aI5028
aI5003
aI4967
aI5036
aI5040
aI5041
aI5032
aI5034
aI-481
aI5051
aI5045
aI-466
aI5049
aI5021
aI5044
aI5043
aI5026
aI5037
aI5011
aI-653
aI5017
aI5030
aI5016
aI4999
aI5051
aI5027
aI-506
aI4989
aI5008
aI5003
aI-551
aI5048
aI5022
aI-489
aI5021
aI-504
aI-505
aI5043
aI5058
aI5038
aI-472
aI5049
aI5018
aI5038
aI5007
aI5001
aI-530
aI5033
aI5032
aI-484
aI5041
aI5002
aI5022
aI-477
aI5020
aI5047
aI5027
aI5029
aI4993
aI5013
aI5047
aI5037
aI5025
aI4989
aI5023
aI5052
aI5061
aI-477
aI5041
aI5046
aI5041
aI5047
aI5016
aI5038
aI5045
aI5020
aI5022
aI5035
aI4958
aI5044
aI-472
aI4982
aI4995
aI5003
aI5012
aI5047
aI5023
aI5049
aI-492
aI-472
aI5049
aI5028
aI5006
aI5054
aI5036
aI5035
aI-505
aI5047
aI5041
aI-495
aI5031
aI5047
aI5042
aI5037
aI4963
aI-501
aI-489
aI5010
aI5041
aI4982
aI5026
aI-473
aI5036
aI4978
aI5050
aI5024
aI4995
aI5027
aI5003
aI5019
aI5031
aI-492
aI5043
aI5034
aI5014
aI4965
aI-601
aI5019
aI-481
aI4994
aI5045
aI5049
aI-502
aI5036
aI5015
aI5045
aI-505
aI5031
aI5021
aI4936
aI5037
aI5033
aI5049
aI4992
aI5039
aI5053
aI-492
aI5044
aI5013
aI5004
aI5050
aI5037
aI5047
aI-514
aI5024
aI5059
aI5030
aI-493
aI5037
aI5026
aI5028
aI5027
aI5015
aI4989
aI5038
aI-496
aI5042
aI5039
aI5053
aI5043
aI5031
aI5017
aI5045
aI5018
aI5036
aI5001
aI5051
aI5039
aI5040
aI5011
aI5039
aI5048
aI5047
aI5038
aI-572
aI5016
aI5033
aI5023
aI5019
aI-459
aI5047
aI5005
aI5016
aI5039
aI5016
aI5046
aI5037
aI-502
aI5034
aI5046
aI5045
aI5031
aI5014
aI5024
aI5018
aI5030
aI5047
aI5039
aI5036
aI5047
aI-478
aI5041
aI4983
aI5029
aI5041
aI5049
aI-474
aI5019
aI5044
aI5051
aI-487
aI5018
aI-471
aI5053
aI5027
aI4975
aI5049
aI5059
aI4923
aI-654
aI5055
aI5025
aI5034
aI5030
aI5030
aI4997
aI5039
aI5043
aI5044
aI5018
aI-492
aI-453
aI5057
aI-483
aI5007
aI5055
aI-475
aI5017
aI5011
aI5046
aI5045
aI5049
aI5040
aI4949
aI5035
aI5025
aI-611
aI-520
aI4976
aI-474
aI-489
aI-499
aI4991
aI-470
aI-521
aI-485
aI5021
aI4973
aI-565
aI5022
aI5043
aI5010
aI5047
aI-569
aI5041
aI5034
aI-477
aI5006
aI5031
aI-483
aI5008
aI5031
aI5003
aI5042
aI5039
aI5046
aI-490
aI5045
aI5055
aI5013
aI5024
aI0
as.