(dp0
S'loss'
p1
(lp2
F2826.09716796875
aF2475.482177734375
aF920.1031494140625
aF1230.865478515625
aF491.6432800292969
aF351.4805603027344
aF1586.6021728515625
aF1508.454345703125
aF-292.0798645019531
aF1887.0052490234375
aF-68.490234375
aF3048.217041015625
aF2191.646240234375
aF56.26319885253906
aF164.04547119140625
aF2119.627685546875
aF862.016845703125
aF-12.820449829101562
aF2449.6494140625
aF565.3922119140625
aF588.773681640625
aF1132.399169921875
aF320.01287841796875
aF3088.7841796875
aF3188.0263671875
aF1221.706298828125
aF1002.039306640625
aF1612.059326171875
aF10.010322570800781
aF2384.4990234375
aF5252.4599609375
aF861.3721923828125
aF-240.5318603515625
aF1174.4105224609375
aF3006.490966796875
aF978.7800903320312
aF140.46624755859375
aF1441.268798828125
aF167.69595336914062
aF410.2362976074219
aF2234.625244140625
aF-2431.192138671875
aF684.0170288085938
aF1167.3017578125
aF306.6524353027344
aF737.4185180664062
aF1307.2022705078125
aF-66.98786926269531
aF705.5712280273438
aF-207.26068115234375
aF1108.1141357421875
aF163.0308380126953
aF618.8103637695312
aF2265.69091796875
aF334.8418273925781
aF1811.721923828125
aF1932.428955078125
aF1244.952392578125
aF2313.928955078125
aF1786.6748046875
aF640.1304931640625
aF779.6177368164062
aF167.39588928222656
aF833.705810546875
aF1522.1273193359375
aF2446.556640625
aF23.691303253173828
aF49.639183044433594
aF3101.833251953125
aF29.928367614746094
aF282.93658447265625
aF1030.7186279296875
aF-251.70578002929688
aF-161.30502319335938
aF1324.4833984375
aF1151.738037109375
aF4228.53125
aF-434.0465393066406
aF2256.86474609375
aF884.3289794921875
aF3139.755615234375
aF-145.13809204101562
aF324.493896484375
aF936.3521728515625
aF112.19001007080078
aF100.91909790039062
aF-238.39547729492188
aF488.17413330078125
aF157.7082977294922
aF882.7950439453125
aF289.3452453613281
aF-48.59443283081055
aF460.0346984863281
aF430.02734375
aF1048.150390625
aF-51.00152587890625
aF2480.859375
aF1390.6741943359375
aF1732.8658447265625
aF353.6639404296875
aF1009.7206420898438
aF1938.440185546875
aF3367.77783203125
aF-362.0318603515625
aF77.99223327636719
aF973.7250366210938
aF-99.87300109863281
aF386.443359375
aF-435.2499694824219
aF-10960.794921875
aF191.01922607421875
aF1438.04248046875
aF2152.51318359375
aF677.4902954101562
aF-855.02001953125
aF-5255.94580078125
aF-5968.97314453125
aF-58.80863952636719
aF116.13091278076172
aF1958.3382568359375
aF2762.8994140625
aF965.38720703125
aF-85.65849304199219
aF360.7071838378906
aF-2637.52001953125
aF210.63206481933594
aF573.3114013671875
aF1019.0093383789062
aF-162.79779052734375
aF261.30426025390625
aF1030.6290283203125
aF618.8336791992188
aF889.60546875
aF2051.3955078125
aF1284.114501953125
aF1185.681884765625
aF-2315.706298828125
aF786.2277221679688
aF1518.4466552734375
aF-673.7830200195312
aF320.7090148925781
aF1737.5869140625
aF2283.11572265625
aF261.5919189453125
aF116.77610778808594
aF870.8562622070312
aF525.55322265625
aF1025.316650390625
aF238.74267578125
aF100.97013854980469
aF674.5643920898438
aF1374.571044921875
aF3889.093017578125
aF1790.9964599609375
aF959.1041870117188
aF1814.69580078125
aF-1603.7947998046875
aF142.7506866455078
aF647.4846801757812
aF926.6654052734375
aF272.4146728515625
aF420.0176086425781
aF213.34417724609375
aF1643.1480712890625
aF616.4590454101562
aF695.5255126953125
aF1345.3623046875
aF-1266.5799560546875
aF264.07568359375
aF230.7653350830078
aF115.5484619140625
aF906.036865234375
aF1146.49169921875
aF-8272.5244140625
aF1577.0084228515625
aF1174.6591796875
aF154.16015625
aF302.82818603515625
aF195.46070861816406
aF429.0569152832031
aF134.97567749023438
aF-2559.686279296875
aF499.05389404296875
aF1235.838134765625
aF425.8536376953125
aF-301.4003601074219
aF1907.03515625
aF-19657.46875
aF877.2445678710938
aF1310.06005859375
aF540.5811767578125
aF234.88888549804688
aF-217.8722686767578
aF500.21771240234375
aF-7105.0048828125
aF312.5245056152344
aF110.038818359375
aF-636.6853637695312
aF-435.6951904296875
aF2228.074951171875
aF115.59283447265625
aF299.34381103515625
aF790.0089721679688
aF-1434.286865234375
aF350.5435791015625
aF5480.8662109375
aF3097.6435546875
aF842.6073608398438
aF2723.989013671875
aF-243.023193359375
aF191.92347717285156
aF344.1580810546875
aF837.1546630859375
aF2362.572265625
aF99.6425552368164
aF661.294921875
aF86.3428955078125
aF199.25643920898438
aF724.5546875
aF381.949951171875
aF-297.9311218261719
aF810.4371948242188
aF2106.027587890625
aF5263.1494140625
aF-327.1224365234375
aF649.1614379882812
aF-78.28083038330078
aF19.30910873413086
aF302.2803649902344
aF1292.8680419921875
aF1047.08837890625
aF1831.9591064453125
aF260.9238586425781
aF2210.1630859375
aF2482.52685546875
aF187.17494201660156
aF688.3405151367188
aF2526.72705078125
aF1268.8175048828125
aF779.60302734375
aF150.11509704589844
aF1583.1986083984375
aF-200.2712860107422
aF3409.302978515625
aF-440.83270263671875
aF210.25357055664062
aF360.5403137207031
aF452.36468505859375
aF4026.712890625
aF-871.9891357421875
aF596.3751220703125
aF1745.4100341796875
aF1254.568359375
aF108.39292907714844
aF66.02850341796875
aF-88.83892822265625
aF-881.498046875
aF69.84661865234375
aF1515.7557373046875
aF1942.6055908203125
aF2168.529541015625
aF-4195.06591796875
aF-353.0107421875
aF122.7926025390625
aF1372.78564453125
aF319.88604736328125
aF1335.024658203125
aF267.70794677734375
aF816.6563110351562
aF1343.127685546875
aF-3.3242149353027344
aF-725.09619140625
aF519.9776611328125
aF111.03349304199219
aF643.109619140625
aF190.3462677001953
aF-20.332778930664062
aF1403.260986328125
aF-1475.3668212890625
aF-220.98509216308594
aF81.77838134765625
aF1810.5494384765625
aF448.9396667480469
aF-232.7055206298828
aF-169.3455810546875
aF526.32080078125
aF119.78961944580078
aF1762.024169921875
aF530.0614624023438
aF148.96923828125
aF842.142822265625
aF-133.38226318359375
aF491.6632995605469
aF758.7254638671875
aF-1384.5584716796875
aF579.7382202148438
aF830.4217529296875
aF1208.03515625
aF-5123.20654296875
aF276.3168640136719
aF278.0878601074219
aF3370.057861328125
aF-2802.063232421875
aF-7953.30859375
aF2227.06396484375
aF882.2088012695312
aF-69.8543701171875
aF1238.6324462890625
aF81.30342102050781
aF768.1038818359375
aF-75.91810607910156
aF935.1073608398438
aF669.838134765625
aF87.0330810546875
aF46.37999725341797
aF29.00393295288086
aF1038.4014892578125
aF-188.83595275878906
aF1996.513671875
aF134.3486785888672
aF604.1991577148438
aF3820.146240234375
aF588.7113037109375
aF67874.125
aF718.072998046875
aF1167.0494384765625
aF762.295654296875
aF2189.4287109375
aF1014.2408447265625
aF1314.7322998046875
aF99.1275634765625
aF2162.015380859375
aF225.21865844726562
aF3603.91455078125
aF2919.415771484375
aF3075.16552734375
aF4044.052978515625
aF48.094791412353516
aF1292.69970703125
aF1250.510498046875
aF1314.2913818359375
aF1103.35009765625
aF683.3465576171875
aF598.7594604492188
aF627.7202758789062
aF69.88655853271484
aF2083.15380859375
aF3276.281494140625
aF789.8211059570312
aF4061.27734375
aF493.87274169921875
aF3034.64111328125
aF3663.66015625
aF2172.21728515625
aF124.92300415039062
aF330.3193664550781
aF2400.15478515625
aF108.96065521240234
aF-301.3870849609375
aF92.16240692138672
aF793.3192138671875
aF3757.7734375
aF80.05506896972656
aF503.9239501953125
aF546.08935546875
aF711.9442749023438
aF-77.43833923339844
aF-9417.0693359375
aF191.76853942871094
aF1925.8292236328125
aF212.26641845703125
aF-306.00714111328125
aF-424.1566162109375
aF2722.696533203125
aF-200.17181396484375
aF1593.21435546875
aF966.0188598632812
aF1129.011474609375
aF1427.7755126953125
aF22.342628479003906
aF198.8096160888672
aF3757.656005859375
aF-424.77923583984375
aF430.233642578125
aF2052.475341796875
aF434.8636474609375
aF1258.9737548828125
aF-120.01673889160156
aF558.211181640625
aF1441.2777099609375
aF2069.862548828125
aF564.14599609375
aF371.3981018066406
aF23.21959686279297
aF770.7652587890625
aF1829.9610595703125
aF534.8870849609375
aF1192.46630859375
aF625.06884765625
aF589.013671875
aF-266.376220703125
aF1269.3240966796875
aF1970.6536865234375
aF-201.0102996826172
aF244.627685546875
aF484.4483947753906
aF1159.3701171875
aF-56.596405029296875
aF116.21917724609375
aF1534.0870361328125
aF136.07098388671875
aF2229.5546875
aF483.20281982421875
aF638.022216796875
aF382.4197998046875
aF580.732421875
aF3048.031494140625
aF1815.628173828125
aF631.8173828125
aF2206.224365234375
aF144.5766143798828
aF1794.126220703125
aF1797.783935546875
aF-58.826866149902344
aF913.710205078125
aF842.457275390625
aF558.0166625976562
aF53.05017852783203
aF1049.865234375
aF106.34696197509766
aF3089.220947265625
aF2501.654541015625
aF669.8982543945312
aF871.3695068359375
aF299.3319091796875
aF1010.3973388671875
aF322.58831787109375
aF-2997.548095703125
aF379.82159423828125
aF821.650146484375
aF1908.037353515625
aF3538.732421875
aF1761.0093994140625
aF1098.4163818359375
aF257.0416564941406
aF1508.4619140625
aF-952.336669921875
aF179.34654235839844
aF95.83250427246094
aF1230.102294921875
aF216.56198120117188
aF4019.7294921875
aF1507.617431640625
aF-1485.0911865234375
aF941.8222045898438
aF1554.994384765625
aF552.0347290039062
aF-2629.645263671875
aF1722.2542724609375
aF916.7905883789062
aF3941.44775390625
aF1165.35107421875
aF3769.282958984375
aF1094.6690673828125
aF1128.552978515625
aF808.7444458007812
aF1209.9010009765625
aF3084.712646484375
aF4437.15478515625
aF1812.05810546875
aF3030.508544921875
aF2659.61181640625
aF3349.889892578125
aF-321.1913757324219
aF515.140380859375
aF2269.0361328125
aF252.9523162841797
aF980.1919555664062
aF1378.0941162109375
aF2174.369384765625
aF130.9737548828125
aF178.52224731445312
aF655.6388549804688
aF629.0291137695312
aF611.44580078125
aF1802.046142578125
aF2007.9595947265625
aF158.49429321289062
aF358.38433837890625
aF552.560302734375
aF1080.173828125
aF302.5868225097656
aF310.1268310546875
aF2022.722412109375
aF-5643.9306640625
aF172.22882080078125
aF-2523.814453125
aF1223.979248046875
aF112.45101165771484
aF218.67665100097656
aF-213.14019775390625
aF-2940.890625
aF1171.07373046875
aF-73.35922241210938
aF2121.14306640625
aF-711.314208984375
aF2887.586669921875
aF1366.1580810546875
aF664.7651977539062
aF459.74365234375
aF57.59929656982422
aF-62.723533630371094
aF-110.20362854003906
aF-752.4573364257812
aF120.69168853759766
aF2449.1640625
aF740.7572021484375
aF906.6801147460938
aF873.2484130859375
aF419.0863342285156
aF774.572509765625
aF2216.570068359375
aF420.17156982421875
aF211.48695373535156
aF-742.419189453125
aF1332.2567138671875
aF2318.2255859375
aF476.21148681640625
aF47.20210266113281
aF1440.6358642578125
aF3044.282958984375
aF88.34579467773438
aF312.6814270019531
aF122.97389221191406
aF561.854736328125
aF867.6656494140625
aF1421.578857421875
aF2340.044921875
aF21.27313995361328
aF1886.780517578125
aF2222.70751953125
aF1103.3497314453125
aF328.8448181152344
aF1341.8917236328125
aF1723.8863525390625
aF-2151.6748046875
aF665.5240478515625
aF1511.572509765625
aF-216.4400634765625
aF786.1526489257812
aF2300.257568359375
aF113.9139404296875
aF26.263675689697266
aF-84.95211791992188
aF-340.5604248046875
aF1232.7000732421875
aF4038.34423828125
aF-701.0255737304688
aF371.24310302734375
aF2534.66064453125
aF1872.9493408203125
aF385.0382080078125
aF819.7184448242188
aF-273.5473327636719
aF3726.43310546875
aF56.95099639892578
aF2113.685302734375
aF392.2796325683594
aF646.8334350585938
aF2738.984130859375
aF420.7276916503906
aF3849.04736328125
aF139.86099243164062
aF213.57325744628906
aF236.62466430664062
aF2905.36279296875
aF279.8050537109375
aF358.0368347167969
aF682.6375732421875
aF122.80591583251953
aF79.70559692382812
aF1555.64990234375
aF4570.138671875
aF775.563232421875
aF2569.458984375
aF2972.831787109375
aF921.7145385742188
aF10.12814712524414
aF450.4135437011719
aF2099.9755859375
aF1108.281005859375
aF387.95556640625
aF-48.385353088378906
aF-320.6904602050781
aF105.9415283203125
aF1788.4359130859375
aF533.4310913085938
aF1224.600830078125
aF2044.6204833984375
aF1885.6597900390625
aF-167.05409240722656
aF205.81130981445312
aF495.2958984375
aF1043.2069091796875
aF435.78155517578125
aF497.0941162109375
aF2960.023681640625
aF-5.543174743652344
aF1487.59130859375
aF65250.6171875
aF300.6676025390625
aF883.1071166992188
aF969.4881591796875
aF3255.943603515625
aF1013.0736083984375
aF-83.43788146972656
aF45.310943603515625
aF258.74896240234375
aF-39.856990814208984
aF51.117244720458984
aF212.89169311523438
aF-182.77342224121094
aF199.3018798828125
aF-1773.5863037109375
aF549.3563842773438
aF368.71002197265625
aF424.65106201171875
aF-1292.7298583984375
aF-952.91357421875
aF126.87041473388672
aF1189.7677001953125
aF251.0015106201172
aF1594.75537109375
aF1519.8255615234375
aF139.41220092773438
aF417.30908203125
aF284.18121337890625
aF162.47427368164062
aF2005.3055419921875
aF687.0186767578125
aF-271.3114013671875
aF210.0341339111328
aF1994.05712890625
aF866.2804565429688
aF226.94131469726562
aF1553.9156494140625
aF352.9114990234375
aF-3066.86376953125
aF-233.10891723632812
aF-85.17897033691406
aF949.0394897460938
aF468.8304443359375
aF523.3982543945312
aF112.7487564086914
aF1037.0731201171875
aF2767.564208984375
aF253.25680541992188
aF26.107250213623047
aF26.25463104248047
aF613.7977294921875
aF734.0021362304688
aF-250.87753295898438
aF1573.144287109375
aF29.76821517944336
aF-77.65863037109375
aF120.78890228271484
aF8.297355651855469
aF-222.4920654296875
aF70.80253601074219
aF2104.80908203125
aF-204.67697143554688
aF1069.84521484375
aF1227.5535888671875
aF118.6668930053711
aF1660.992919921875
aF-59.67046356201172
aF1120.085205078125
aF490.2115478515625
aF1183.1134033203125
aF2899.933837890625
aF47.573917388916016
aF188.4243621826172
aF98.26919555664062
aF499.9709167480469
aF79.24360656738281
aF404.46240234375
aF719.1456909179688
aF-2203.1005859375
aF65786.0
aF-72.53553771972656
aF-285.5125732421875
aF48969.3046875
aF122.59716796875
aF3172.3115234375
aF-190.4186248779297
aF-269.8752136230469
aF1366.4053955078125
aF-52.97246551513672
aF49404.2109375
aF347.4884033203125
aF53.03273391723633
aF1376.6724853515625
aF995.4252319335938
aF1506.2974853515625
aF1665.5535888671875
aF123.64018249511719
aF2351.546142578125
aF-20.415504455566406
aF-249.15670776367188
aF63100.84375
aF684.8004760742188
aF933.5030517578125
aF-306.27972412109375
aF32.0609130859375
aF622.570068359375
aF1042.2840576171875
aF904.0903930664062
aF73.30103302001953
aF-234.1029052734375
aF2698.412109375
aF538.2748413085938
aF1372.017578125
aF1858.9669189453125
aF-36.398353576660156
aF580.2423706054688
aF200.73829650878906
aF-55.48290252685547
aF278.8359375
aF248.08099365234375
aF-22611.3359375
aF893.8277587890625
aF337.455322265625
aF1275.28271484375
aF-349.4073791503906
aF29.700958251953125
aF4279.12109375
aF2490.81591796875
aF-152430.5
aF2420.98974609375
aF553.65087890625
aF101.67340850830078
aF720.9361572265625
aF152.49574279785156
aF2934.570556640625
aF2347.4111328125
aF-128.47439575195312
aF607.25439453125
aF805.3927612304688
aF2711.924072265625
aF168.2477569580078
aF89.14031219482422
aF160.96719360351562
aF1357.475830078125
aF186.94073486328125
aF19.974231719970703
aF956.0466918945312
aF1604.646240234375
aF291.5171203613281
aF804.3616943359375
aF547.6380615234375
aF1624.2862548828125
aF557.7413940429688
aF1470.840087890625
aF2246.1708984375
aF957.8626708984375
aF389.6029357910156
aF87.66584777832031
aF-120.09119415283203
aF267.9195861816406
aF1080.310302734375
aF2741.7861328125
aF-189.71392822265625
aF50075.0703125
aF578.804931640625
aF1174.510498046875
aF100.08859252929688
aF167.21432495117188
aF559.2454223632812
aF770.8567504882812
aF135.2870635986328
aF2098.225830078125
aF-59.89017105102539
aF473.10198974609375
aF649.610107421875
aF477.2221374511719
aF705.5682983398438
aF1654.081298828125
aF-212.51458740234375
aF228.5885772705078
aF-126.46159362792969
aF391.0621337890625
aF-23.637420654296875
aF783.8638305664062
aF-166.0803680419922
aF-1154.4840087890625
aF1064.2943115234375
aF945.2075805664062
aF44.61011505126953
aF-148.2451629638672
aF-63.42570495605469
aF212.929931640625
aF-383.2886657714844
aF-1275.420654296875
aF-64.61666870117188
aF131.72381591796875
aF-1272.991455078125
aF-147.86898803710938
aF1775.85693359375
aF272.9013366699219
aF687.2137451171875
aF-142.86282348632812
aF-84.6138916015625
aF-282.5674743652344
aF1636.4652099609375
aF-281.72357177734375
aF-266.94171142578125
aF12.384739875793457
aF311.35626220703125
aF1216.029296875
aF155.28439331054688
aF-17.275245666503906
aF53.83111572265625
aF1618.0142822265625
aF1325.2818603515625
aF660.0546875
aF-713.4095458984375
aF822.362060546875
aF1694.461181640625
aF9.045287132263184
aF1781.480224609375
aF322.4620361328125
aF-204.57223510742188
aF-364.4949951171875
aF701.3644409179688
aF1738.6966552734375
aF8.479171752929688
aF858.7623291015625
aF-97.69706726074219
aF435.0570373535156
aF-107.77543640136719
aF2747.86962890625
aF-46.34716796875
aF116.83586883544922
aF59818.5078125
aF689.712646484375
aF1238.17626953125
aF10.503387451171875
aF1909.44677734375
aF797.576904296875
aF111.49823760986328
aF668.039306640625
aF376.52081298828125
aF903.533447265625
aF1217.4378662109375
aF1074.8966064453125
aF905.2759399414062
aF1306.8736572265625
aF4430.57080078125
aF636.4824829101562
aF1632.1849365234375
aF1602.0404052734375
aF451.2691650390625
aF163.19068908691406
aF41.886383056640625
aF916.4209594726562
aF-78.73961639404297
aF17.71453857421875
aF230.92723083496094
aF1831.4449462890625
aF1299.75537109375
aF2134.255615234375
aF1130.22900390625
aF2018.17236328125
aF54374.046875
aF165.1654052734375
aF-43436.65234375
aF-19.375728607177734
aF2927.87060546875
aF-140.28929138183594
aF376.4609375
aF1128.9659423828125
aF848.8801879882812
aF20.745746612548828
aF61.108741760253906
aF2173.114013671875
aF1489.2470703125
aF708.6357421875
aF120.98764038085938
aF47.28083038330078
aF56762.6796875
aF1966.440673828125
aF1825.04248046875
aF585.1995239257812
aF870.3775024414062
aF-43.56093215942383
aF604.279296875
aF319.5708923339844
aF195.77987670898438
aF69989.953125
aF-112.90258026123047
aF1270.0421142578125
aF-226.5796661376953
aF97.8319320678711
aF1390.4432373046875
aF-367.5105285644531
aF2150.292724609375
aF1675.4288330078125
aF747.9979858398438
aF421.6731262207031
aF252.7348175048828
aF-162.28656005859375
aF1140.179931640625
aF359.2548522949219
aF3029.581787109375
aF767.1946411132812
aF1014.24951171875
aF141.24880981445312
aF-279.4625244140625
aF1450.8211669921875
aF19.937957763671875
aF-301.2756652832031
aF2998.111328125
aF-244.937744140625
aF362.4364929199219
aF436.6160583496094
aF1881.3592529296875
aF238.0012664794922
aF2082.88525390625
aF786.2715454101562
aF194.50991821289062
aF119.13606262207031
aF831.9886474609375
aF-103.88825988769531
aF2292.25048828125
aF1094.0157470703125
aF49.66019821166992
aF11.150142669677734
aF151.91647338867188
aF3250.367919921875
aF11.911521911621094
aF55140.19140625
aF-77.90006256103516
aF84.9239730834961
aF1492.827880859375
aF256.0503845214844
aF-246.94467163085938
aF416.42816162109375
aF7.621677875518799
aF338.7555236816406
aF154.5500946044922
aF1171.14453125
aF173.02024841308594
aF78.35311126708984
aF7.3383636474609375
aF1567.72802734375
aF1895.489013671875
aF-0.7310600280761719
aF12.469846725463867
aF986.2021484375
aF522.792236328125
aF-27.029857635498047
aF508.1031494140625
aF7.448448181152344
aF22.87664794921875
aF494.17242431640625
aF868.9866333007812
aF1909.43896484375
aF400.63134765625
aF808.407958984375
aF-214.8728790283203
aF1993.18701171875
aF823.4991455078125
aF853.1331176757812
aF-210.93894958496094
aF4.089546203613281
aF1913.9822998046875
aF-209.9977264404297
aF294.81964111328125
aF126.18775939941406
aF1814.831787109375
aF888.891845703125
aF1434.39306640625
aF109.65835571289062
aF1392.815185546875
aF848.0626831054688
aF497.1318054199219
aF1795.453857421875
aF532.599365234375
aF-0.5837860107421875
aF46.36072540283203
aF-318.1510314941406
aF672.1700439453125
aF326.65167236328125
aF846.4342041015625
aF-904.0769653320312
aF238.69332885742188
aF68.77163696289062
aF951.5741577148438
aF1389.890625
aF673.7255249023438
aF-33.67426300048828
aF1469.193115234375
aF649.0863647460938
aF847.368408203125
aF286.63995361328125
aF-126.38854217529297
aF1876.613037109375
aF1828.8321533203125
aF-375.2904357910156
aF78.5555648803711
aF524.8968505859375
aF-21.694984436035156
aF335.8518371582031
aF487.9132995605469
aF33.536407470703125
aF7.744131565093994
aF13.796167373657227
aF242.63108825683594
aF347.9332580566406
aF-11.311208724975586
aF191.89962768554688
aF7.359286308288574
aF387.5301208496094
aF-24.397571563720703
aF1313.679931640625
aF341.0601806640625
aF106.81856536865234
aF57179.40625
aF-241.4063262939453
aF-19.04421043395996
aF741.0170288085938
aF573.841796875
aF507.1562194824219
aF-1586.0989990234375
aF41725.33203125
aF601.203369140625
aF322.4449462890625
aF2533.69384765625
aF157.1498565673828
aF465.95587158203125
aF-474.6460876464844
aF99.39239501953125
aF507.61669921875
aF2551.71630859375
aF561.0354614257812
aF465.4367370605469
aF62.49592590332031
aF141.0478515625
aF1932.758544921875
aF1454.3548583984375
aF3190.574462890625
aF1181.7779541015625
aF1371.8453369140625
aF-107.78968048095703
aF1560.3287353515625
aF1636.9180908203125
aF1142.07421875
aF1901.07958984375
aF748.5543823242188
aF1869.4869384765625
aF2285.529052734375
aF1262.7886962890625
aF214.48538208007812
aF1603.9412841796875
aF-70.90985870361328
aF-97.68621826171875
aF-89.06689453125
aF195.41488647460938
aF36.327083587646484
aF-110.97249603271484
aF-9.458759307861328
aF478.7124328613281
aF-487.234619140625
aF1420.900146484375
aF-18.04766082763672
aF-42.577293395996094
aF787.8458862304688
aF2044.7314453125
aF1294.61279296875
aF17.729503631591797
aF914.3628540039062
aF-1091.10302734375
aF119.73332214355469
aF-110.40164947509766
aF902.2700805664062
aF273.65667724609375
aF33.77252960205078
aF221.23580932617188
aF35.30735778808594
aF521.5967407226562
aF-30.871837615966797
aF40.16267395019531
aF31582.189453125
aF567.4320068359375
aF39.39442825317383
aF67.0730209350586
aF126.03060913085938
aF220.83197021484375
aF-104.65522766113281
aF45198.54296875
aF-187.23660278320312
aF-194.70126342773438
aF2469.717529296875
aF1235.863037109375
aF319.90997314453125
aF37639.78125
aF-92.43855285644531
aF822.3954467773438
aF-146.76779174804688
aF1445.5401611328125
aF28988.443359375
aF117.26107788085938
aF40244.890625
aF-47.60963821411133
aF143.6683349609375
aF1300.0546875
aF-43.97637176513672
aF747.326904296875
aF65.48776245117188
aF51253.69140625
aF33.18596267700195
aF-12.248903274536133
aF37097.8671875
aF945.3538208007812
aF-19.861907958984375
aF-58.185546875
aF673.6766357421875
aF172.18724060058594
aF83.06554412841797
aF-47.60859680175781
aF2162.24072265625
aF-50.62397003173828
aF1208.1722412109375
aF103.54936981201172
aF50.52862548828125
aF393.482666015625
aF698.0899047851562
aF-78.79667663574219
aF182.4105682373047
aF1030.118408203125
aF419.00482177734375
aF656.8379516601562
aF54.43486785888672
aF-273.7215576171875
aF533.9229125976562
aF1490.6343994140625
aF969.2210083007812
aF457.5142517089844
aF46389.02734375
aF45202.20703125
aF6.361528396606445
aF109.6330795288086
aF134.25164794921875
aF1143.7174072265625
aF44711.9609375
aF235.73257446289062
aF1596.3795166015625
aF33817.97265625
aF136.2833251953125
aF1410.6156005859375
aF54.72235870361328
aF28.639404296875
aF-206.0364532470703
aF-19.213706970214844
aF1287.7298583984375
aF506.11962890625
aF947.3291015625
aF13.572532653808594
aF11.979654312133789
aF21525.43359375
aF4.5335612297058105
aF293.10382080078125
aF149.5149688720703
aF25105.65625
aF-39.86933135986328
aF423.8776550292969
aF2521.70166015625
aF-191.0994873046875
aF119.7354736328125
aF-220.71148681640625
aF379.091064453125
aF-70083.8828125
aF388.57958984375
aF-150.9502716064453
aF598.8096313476562
aF556.4243774414062
aF160.1505584716797
aF1506.0933837890625
aF-198.64938354492188
aF9.598695755004883
aF14628.5966796875
aF1348.202880859375
aF-115.96747589111328
aF739.0349731445312
aF28999.12109375
aF-142.58023071289062
aF604.6641845703125
aF924.9647216796875
aF697.847412109375
aF685.740966796875
aF846.7220458984375
aF35297.12109375
aF1963.923828125
aF-217.93482971191406
aF208.851318359375
aF1283.93310546875
aF24758.056640625
aF23.72852325439453
aF53.61993408203125
aF3.948861598968506
aF284.0948486328125
aF107.119384765625
aF520.9344482421875
aF11283.3720703125
aF374.5523376464844
aF-108.31511688232422
aF-61.43245315551758
aF35508.0546875
aF-171.9209747314453
aF-280.88165283203125
aF16874.22265625
aF1545.2655029296875
aF-130.70101928710938
aF14.552118301391602
aF-184.355224609375
aF-68.13748931884766
aF3.7820053100585938
aF26628.732421875
aF-18.11962890625
aF27.40733528137207
aF168.5750732421875
aF-19.513240814208984
aF-19.96614646911621
aF33115.60546875
aF213.84701538085938
aF-126.688720703125
aF-135.6427764892578
aF-7.932672500610352
aF73.7288589477539
aF22741.14453125
aF11492.380859375
aF21022.548828125
aF23801.0859375
aF-126.67335510253906
aF6758.70654296875
aF-0.946946382522583
aF186.38717651367188
aF1085.3858642578125
aF14985.93359375
aF23.277206420898438
aF271.3326721191406
aF6227.119140625
aF3955.4248046875
aF24597.359375
aF17721.15625
aF-80.55229187011719
aF29035.34375
aF289.2599182128906
aF1230.3375244140625
aF6725.0810546875
aF929.5371704101562
aF144.12466430664062
aF177.3991241455078
aF199.57554626464844
aF165.0660858154297
aF160.094482421875
aF44180.21484375
aF1026.085205078125
aF304.63348388671875
aF905.4664916992188
aF-52.955482482910156
aF12481.619140625
aF5066.7822265625
aF478.47064208984375
aF700.359130859375
aF13739.892578125
aF-52.06338882446289
aF4790.44970703125
aF36.73867416381836
aF-0.8370175361633301
aF3906.6015625
aF3657.2060546875
aF1817.4825439453125
aF20.623455047607422
aF733.5810546875
aF2191.892578125
aF-28.123329162597656
aF-63.979591369628906
aF-37.847354888916016
aF3071.050537109375
aF330.08721923828125
aF1314.474853515625
aF-43.305320739746094
aF-255.57919311523438
aF-56.90612030029297
aF-42.673118591308594
aF8.670153617858887
aF-24.350027084350586
aF928.7255249023438
aF14693.966796875
aF166.4319610595703
aF16834.841796875
aF40.49323272705078
aF2516.89306640625
aF34333.6015625
aF1495.614501953125
aF251.88978576660156
aF95.93462371826172
aF-199.84945678710938
aF-16.44728660583496
aF1406.0850830078125
aF2125.142578125
aF2548.413818359375
aF-3.750120162963867
aF3131.4462890625
aF392.2524719238281
aF41.025962829589844
aF870.5899658203125
aF9.990533828735352
aF966.3255004882812
aF-70.49969482421875
aF376.71405029296875
aF40.11973571777344
aF11.029083251953125
aF2.3482465744018555
aF484.9977111816406
aF157.81861877441406
aF1582.9764404296875
aF-159.1819305419922
aF2508.9990234375
aF9600.572265625
aF12109.1015625
aF2207.0673828125
aF3012.5439453125
aF975.340576171875
aF-207.05624389648438
aF9626.3740234375
aF-29871.943359375
aF1252.81494140625
aF520.5650634765625
aF2510.634521484375
aF4.886149883270264
aF8081.79541015625
aF193.71795654296875
aF4577.07421875
aF-20.65475845336914
aF2302.203857421875
aF12628.60546875
aF41.67017364501953
aF-302.50579833984375
aF117.91028594970703
aF16.726165771484375
aF135.59608459472656
aF-45.116912841796875
aF10.539886474609375
aF16873.177734375
aF33.88254165649414
aF369.2703857421875
aF-50.55684280395508
aF788.5468139648438
aF13808.3759765625
aF-86.64553833007812
aF26694.580078125
aF-131.51528930664062
aF652.7529296875
aF1845.3294677734375
aF4073.30615234375
aF76.11297607421875
aF1167.3865966796875
aF18.70734214782715
aF13002.5419921875
aF12.962021827697754
aF1162.51123046875
aF89.57048797607422
aF2000.73779296875
aF3.173048496246338
aF9491.1943359375
aF-6.479487419128418
aF-205.5912322998047
aF499.16015625
aF5035.8720703125
aF-13.921876907348633
aF9632.4619140625
aF-197.3219451904297
aF20623.0859375
aF2531.79541015625
aF27443.166015625
aF-267.06072998046875
aF10088.3232421875
aF382.9305419921875
aF-7.991718292236328
aF16490.46875
aF26800.576171875
aF-289.00970458984375
aF205.6463623046875
aF11.082208633422852
aF14.89611530303955
aF-1.5677261352539062
aF5713.9931640625
aF9190.734375
aF12684.875
aF23334.951171875
aF102.91888427734375
aF29822.568359375
aF72.64317321777344
aF14.454554557800293
aF16.387161254882812
aF19189.8984375
aF21311.091796875
aF33.17363739013672
aF14883.1787109375
aF10479.9345703125
aF386.481201171875
aF53.80674743652344
aF-142.50672912597656
aF-117.91349792480469
aF-17.906341552734375
aF233.01327514648438
aF2182.248779296875
aF200.82479858398438
aF9863.0634765625
aF8512.4404296875
aF147.4701690673828
aF-117.4868392944336
aF2974.1416015625
aF2.062652826309204
aF13679.880859375
aF8415.2001953125
aF0.5335276126861572
aF1710.409912109375
aF735.80712890625
aF15629.6171875
aF3.2364344596862793
aF45.1452522277832
aF438.671875
aF-4222.43115234375
aF3643.8505859375
aF22287.404296875
aF0.42729249596595764
aF20495.0625
aF19.1997013092041
aF94.76240539550781
aF-123.90399169921875
aF13821.361328125
aF997.9873046875
aF-109.34364318847656
aF4282.71533203125
aF6882.29541015625
aF266.7201232910156
aF486.8321533203125
aF5.156189918518066
aF33.86945343017578
aF899.30419921875
aF234.25633239746094
aF371.6461486816406
aF479.7608337402344
aF451.04510498046875
aF24388.619140625
aF3567.17626953125
aF5.039369106292725
aF6932.84228515625
aF-101.88362121582031
aF983.2745971679688
aF2.1424174308776855
aF1441.539306640625
aF2699.602783203125
aF-16.000778198242188
aF28.5623836517334
aF1169.5721435546875
aF829.5004272460938
aF31471.6796875
aF1866.9541015625
aF6782.37353515625
aF1835.0654296875
aF-249.506103515625
aF898.666748046875
aF1.4884977340698242
aF7922.34228515625
aF3442.692626953125
aF0.7102373838424683
aF-72.20832061767578
aF4725.791015625
aF-158.5691680908203
aF7642.14111328125
aF0.6490602493286133
aF5390.83544921875
aF4.430075645446777
aF-197.78024291992188
aF-10.24571704864502
aF-24.470436096191406
aF20111.7421875
aF4.309323310852051
aF399.431396484375
aF420.1477355957031
aF0.7177958488464355
aF-0.8812227249145508
aF-157.15252685546875
aF10957.1611328125
aF34398.4921875
aF4816.97607421875
aF439.9874267578125
aF337.6020812988281
aF1748.316650390625
aF-21.2586612701416
aF13580.904296875
aF-11.80678653717041
aF1.5742149353027344
aF0.06161385774612427
aF-2.780855178833008
aF7920.77001953125
aF9925.0830078125
aF8153.96875
aF-109.83121490478516
aF13028.3388671875
aF-185.44696044921875
aF-2.09981107711792
aF373.8311462402344
aF10145.1318359375
aF13527.3154296875
aF5069.0126953125
aF6517.61669921875
aF5637.31787109375
aF9168.8671875
aF1502.048583984375
aF12.870101928710938
aF22.379005432128906
aF3425.969482421875
aF-6.206056594848633
aF15.098821640014648
aF5.404650688171387
aF1125.0994873046875
aF3733.168701171875
aF-5.302186489105225
aF6008.31201171875
aF9614.9716796875
aF6756.79345703125
aF8128.75146484375
aF1.0594900846481323
aF11235.5322265625
aF-110.63082122802734
aF7.615463733673096
aF4.379761695861816
aF452.98919677734375
aF54.71754455566406
aF7186.19775390625
aF4405.654296875
aF4652.7919921875
aF804.363525390625
aF-3.6748428344726562
aF1.7521522045135498
aF4054.443115234375
aF-299.4274597167969
aF2988.150146484375
aF1.3672767877578735
aF2.4733853340148926
aF-123.41336059570312
aF329.2371826171875
aF11336.0205078125
aF-4.2772979736328125
aF10.796029090881348
aF23694.8671875
aF2532.72412109375
aF6755.06103515625
aF5622.4365234375
aF740.4873046875
aF174.7229766845703
aF-386.28082275390625
aF79.57707977294922
aF629.3789672851562
aF3.1018903255462646
aF18216.9921875
aF16332.5732421875
aF33.24911880493164
aF30.071998596191406
aF18915.2734375
aF-65.414794921875
aF17757.384765625
aF11092.2060546875
aF967.5279541015625
aF1032.9495849609375
aF-5.7282586097717285
aF-76.1330795288086
aF18369.16015625
aF1219.388916015625
aF3.887436866760254
aF6482.52392578125
aF8858.501953125
aF14522.0
aF28080.185546875
aF458.84228515625
aF3.472066879272461
aF350.370849609375
aF10759.365234375
aF9897.2861328125
aF13548.4765625
aF7490.38818359375
aF-12.182703971862793
aF10542.2080078125
aF3149.1904296875
aF7538.73828125
aF5896.1240234375
aF1.6526962518692017
aF9400.7607421875
aF-10.160310745239258
aF10.189659118652344
aF139.28955078125
aF228.89097595214844
aF8373.71484375
aF21.078929901123047
aF322.58636474609375
aF723.1980590820312
aF282.30230712890625
aF78.9798812866211
aF54.20276641845703
aF439.27667236328125
aF6062.5966796875
aF49.24551773071289
aF366.52642822265625
aF5855.18701171875
aF379.8877868652344
aF2843.06005859375
aF15236.5537109375
aF23762.10546875
aF-4.314259052276611
aF3102.012451171875
aF68.42391967773438
aF-219.46823120117188
aF390.44580078125
aF151.18185424804688
aF1.348550796508789
aF318.7730407714844
aF2.369307041168213
aF35.87866973876953
aF5686.42626953125
aF134.80917358398438
aF-269.36883544921875
aF28.58563995361328
aF26.82024574279785
aF-63.44630432128906
aF3046.998046875
aF25.27041244506836
aF-325.5684814453125
aF1499.4942626953125
aF7972.56396484375
aF144.35623168945312
aF-62.892303466796875
aF1.0946695804595947
aF24.74227523803711
aF0.9465194940567017
aF-80.76515197753906
aF117.53887176513672
aF1557.669189453125
aF23.444278717041016
aF0.8218185901641846
aF1.3281927108764648
aF41.947723388671875
aF63.49930953979492
aF-151.7465362548828
aF5.125853538513184
aF1.1913907527923584
aF6041.57470703125
aF-9.575453758239746
aF624.4708251953125
aF0.14691871404647827
aF-26.958711624145508
aF596.92138671875
aF2078.001708984375
aF1568.661376953125
aF101.27922058105469
aF1683.352294921875
aF860.1004638671875
aF13918.888671875
aF2471.84228515625
aF937.935302734375
aF7842.8525390625
aF1428.346923828125
aF0.5136414170265198
aF3.6268310546875
aF2.230289936065674
aF610.6446533203125
aF1251.32470703125
aF-189.96331787109375
aF5326.41943359375
aF10203.0947265625
aF-64.57811737060547
aF-86.67709350585938
aF24.536701202392578
aF4377.6748046875
aF1914.115478515625
aF3644.03955078125
aF-8.816767692565918
aF8.683277130126953
aF241.0218048095703
aF8647.083984375
aF16264.23828125
aF99.01652526855469
aF7258.61181640625
aF1041.991943359375
aF-115.0553970336914
aF7889.251953125
aF13565.111328125
aF2740.2265625
aF968.3590698242188
aF24.51216697692871
aF561.4119873046875
aF1.3019607067108154
aF1743.725341796875
aF-5.329010963439941
aF475.19317626953125
aF7998.07666015625
aF1.394113540649414
aF-2.5678353309631348
aF4355.9794921875
aF617.1439819335938
aF-9.219205856323242
aF1.4406791925430298
aF24.80044174194336
aF25.72063636779785
aF4520.970703125
aF6565.89501953125
aF2044.275634765625
aF0.4898867607116699
aF1821.0155029296875
aF104.32805633544922
aF-4.3799896240234375
aF1511.3209228515625
aF318.9989013671875
aF2066.50537109375
aF645.1970825195312
aF7.273777961730957
aF1137.4310302734375
aF6093.45361328125
aF342.3493957519531
aF443.2738952636719
aF18.33681869506836
aF3722.342041015625
aF0.3207669258117676
aF3593.111572265625
aF-10.1026029586792
aF15914.3056640625
aF433.32745361328125
aF-0.1197083592414856
aF-1.1119956970214844
aF5363.56298828125
aF8109.15087890625
aF202.74461364746094
aF2464.095947265625
aF4.003448963165283
aF245.6586456298828
aF9.855144500732422
aF285.4453125
aF696.5834350585938
aF5.751486301422119
aF-25.351741790771484
aF-12.532354354858398
aF-116.54328918457031
aF406.8492431640625
aF1513.098876953125
aF45.22832107543945
aF819.5069580078125
aF226.7152862548828
aF82.90152740478516
aF235.24703979492188
aF10873.3447265625
aF-45.335391998291016
aF12645.3017578125
aF12.117756843566895
aF1533.1968994140625
aF3.0984086990356445
aF2405.305419921875
aF-43.77117919921875
aF41.196617126464844
aF15.107450485229492
aF20.79239273071289
aF3.4047505855560303
aF18.765518188476562
aF19.7313289642334
aF6109.796875
aF-83.09255981445312
aF13.499580383300781
aF-100.46292114257812
aF1669.8768310546875
aF-2.0894646644592285
aF49.31298065185547
aF205.50852966308594
aF-75.29147338867188
aF64.33432006835938
aF11.589765548706055
aF1790.0594482421875
aF-275.21441650390625
aF-0.8517072200775146
aF2889.672119140625
aF8471.35546875
aF6658.40380859375
aF82.89279174804688
aF478.4314880371094
aF-21.380111694335938
aF797.548828125
aF445.6578674316406
aF651.8519287109375
aF1.40774667263031
aF-57.3985595703125
aF1.2033934593200684
aF-36.55249786376953
aF4640.904296875
aF2.5577642917633057
aF172.7455596923828
aF282.93975830078125
aF1.7368321418762207
aF3678.859619140625
aF-21.432863235473633
aF9863.37890625
aF348.5909118652344
aF23.009838104248047
aF236.49758911132812
aF3.024388313293457
aF429.5294189453125
aF3.940451145172119
aF235.45289611816406
aF-42.324974060058594
aF122.39370727539062
aF-81.54395294189453
aF16.478031158447266
aF2.4622015953063965
aF5.4105224609375
aF5.383723258972168
aF492.1368713378906
aF-77.21697998046875
aF4829.3701171875
aF2986.657470703125
aF-68.61782836914062
aF95.81915283203125
aF634.8975830078125
aF9.809000015258789
aF-76.61431884765625
aF240.68112182617188
aF1.2520842552185059
aF19413.484375
aF-64.80165100097656
aF1374.6357421875
aF748.5278930664062
aF5.670044898986816
aF1223.9638671875
aF4.262864589691162
aF-18.395471572875977
aF11.362492561340332
aF206.70724487304688
aF-7.279090881347656
aF8.314006805419922
aF345.3969421386719
aF-31.32221221923828
aF4953.87841796875
aF1285.9107666015625
aF3.249373435974121
aF9183.443359375
aF0.24323606491088867
aF-33.83978271484375
aF-239.4396209716797
aF1894.8433837890625
aF-116.31066131591797
aF0.776787281036377
aF-48.31663131713867
aF-359.93170166015625
aF668.3983154296875
aF4570.35888671875
aF685.791259765625
aF562.0597534179688
aF-17.30259132385254
aF1962.7373046875
aF-168.9701690673828
aF-131.44308471679688
aF27724.453125
aF-65518.00390625
aF2453.47314453125
aF1.2075395584106445
aF-75996.8203125
aF20565.591796875
aF5315.80908203125
aF3235.68603515625
aF13177.4892578125
aF-25.153064727783203
aF11855.2919921875
aF9416.466796875
aF4846.3916015625
aF2.8882617950439453
aF6.087658882141113
aF2086.951904296875
aF6.7338128089904785
aF4615.41015625
aF-62.03701400756836
aF7124.58056640625
aF23669.48828125
aF11782.3095703125
aF-118.35608673095703
aF0.9856709241867065
aF1474.6441650390625
aF2.86450457572937
aF4919.873046875
aF985.4852294921875
aF520.4485473632812
aF5518.38916015625
aF721.2044067382812
aF954.4464721679688
aF2801.013427734375
aF2.0566046237945557
aF796.1776123046875
aF2.7178127765655518
aF1292.2650146484375
aF26176.296875
aF453.3978271484375
aF396.9385070800781
aF17.08770179748535
aF384.4391784667969
aF3084.45458984375
aF1096.2252197265625
aF32.48615264892578
aF12740.775390625
aF58.23250198364258
aF104.58935546875
aF12245.02734375
aF498.387451171875
aF2646.0166015625
aF1583.0595703125
aF481.87548828125
aF4550.9150390625
aF574.9081420898438
aF6.359522819519043
aF682.6846923828125
aF219.5614471435547
aF11779.5751953125
aF625.7948608398438
aF2.669987201690674
aF3613.220458984375
aF5453.69189453125
aF0.3306334316730499
aF59.83366394042969
aF374.5959167480469
aF0.6883936524391174
aF-104.99600982666016
aF8.665552139282227
aF2.6715149879455566
aF790.9830932617188
aF511.00067138671875
aF148.1472930908203
aF7940.34619140625
aF7853.697265625
aF437.6750793457031
aF16092.1474609375
aF3460.658447265625
aF9.196605682373047
aF13855.990234375
aF228.2890167236328
aF-0.8526546955108643
aF54.68630599975586
aF36.150657653808594
aF-9.30224895477295
aF9.745640754699707
aF18.206636428833008
aF325.2122802734375
aF401.1163330078125
aF198.649658203125
aF22.253616333007812
aF18.586973190307617
aF1191.9947509765625
aF33.21366500854492
aF493.4715881347656
aF896.0839233398438
aF17.369884490966797
aF4570.17138671875
aF-49.677188873291016
aF485.79901123046875
aF36.120643615722656
aF16736.701171875
aF-237.89158630371094
aF28.531936645507812
aF4235.8701171875
aF-56.38246536254883
aF-44.25946807861328
aF19673.29296875
aF6039.1220703125
aF6129.1982421875
aF5.345659255981445
aF5194.96337890625
aF-26.464094161987305
aF445.2099914550781
aF417.71417236328125
aF0.13152609765529633
aF250.22828674316406
aF1.3897655010223389
aF-49.085262298583984
aF5250.5830078125
aF-0.7297269105911255
aF1486.1453857421875
aF2384.980224609375
aF-6.310155868530273
aF427.7655029296875
aF9.212419509887695
aF26.475791931152344
aF-5.105757236480713
aF5214.88134765625
aF-7.112405776977539
aF-62.09698486328125
aF-0.4562588930130005
aF4.988214492797852
aF-0.26942670345306396
aF2138.09912109375
aF82.01296997070312
aF10002.931640625
aF4330.02294921875
aF245.27154541015625
aF27799.18359375
aF19.997161865234375
aF-292.22320556640625
aF6663.6826171875
aF-45.760929107666016
aF697.4835815429688
aF1.3043506145477295
aF33.521522521972656
aF284.9754638671875
aF4.7052717208862305
aF1659.67822265625
aF650.7732543945312
aF6169.43798828125
aF-60.72044372558594
aF13855.3466796875
aF13.373431205749512
aF42.62074661254883
aF339.31500244140625
aF3226.758056640625
aF45.373313903808594
aF10326.6904296875
aF6120.28955078125
aF207.2727813720703
aF4675.95458984375
aF14364.6455078125
aF15996.578125
aF2163.1845703125
aF18376.53515625
aF6138.107421875
aF-37.818382263183594
aF1369.35302734375
aF6086.1416015625
aF5084.703125
aF16.073652267456055
aF15.458977699279785
aF935.2916870117188
aF25.44553565979004
aF33.83595275878906
aF2072.717529296875
aF37.122406005859375
aF3311.10400390625
aF1.9349365234375
aF29.43379020690918
aF192.20489501953125
aF1588.688232421875
aF9998.71484375
aF10.334242820739746
aF21471.060546875
aF18.117305755615234
aF2704.621826171875
aF4288.18115234375
aF234.49562072753906
aF1.829851508140564
aF-17.657304763793945
aF-32.90327453613281
aF-65.30905151367188
aF813.4774169921875
aF777.5593872070312
aF0.13326016068458557
aF5.500795364379883
aF10599.533203125
aF513.0326538085938
aF0.7607694268226624
aF22511.302734375
aF2.2952880859375
aF7.909750938415527
aF-0.15034714341163635
aF752.65185546875
aF2.6137070655822754
aF-61.138057708740234
aF172.7193145751953
aF-20.147546768188477
aF790.383056640625
aF2808.8095703125
aF-16.462087631225586
aF5.372058868408203
aF-159.49241638183594
aF240.33673095703125
aF221.57464599609375
aF0.7413742542266846
aF-0.0008373856544494629
aF-213.44024658203125
aF5720.44677734375
aF4045.321533203125
aF1742.2642822265625
aF1013.9639282226562
aF-6.5141754150390625
aF62.924224853515625
aF13.91659164428711
aF64.86199188232422
aF-99.19174194335938
aF4788.849609375
aF-130.979736328125
aF6712.35205078125
aF5.46656608581543
aF862.4087524414062
aF-56.0101432800293
aF-1.1023757457733154
aF13.165258407592773
aF1483.751220703125
aF2.844686269760132
aF27.059953689575195
aF-117.24684143066406
aF-51.429466247558594
aF0.7520327568054199
aF200.71914672851562
aF2069.1669921875
aF11443.666015625
aF25.385696411132812
aF-1.766762375831604
aF18977.802734375
aF0.2915576696395874
aF2082.824462890625
aF-2.7426466941833496
aF120.2829818725586
aF897.470947265625
aF948.96337890625
aF-1.3625297546386719
aF5133.9453125
aF0.34544825553894043
aF1362.357177734375
aF-201.810302734375
aF221.19337463378906
aF1385.4635009765625
aF377.1813659667969
aF-31.496112823486328
aF7230.1865234375
aF402.01715087890625
aF-291.5777587890625
aF1.7960546016693115
aF61.14112091064453
aF1110.77490234375
aF4676.21728515625
aF4586.67822265625
aF1027.4384765625
aF-63.722007751464844
aF478.2318115234375
aF54.516265869140625
aF36.87050247192383
aF17.14348793029785
aF12.157468795776367
aF15.935078620910645
aF99.05296325683594
aF61.0492057800293
aF119.33695983886719
aF138.92706298828125
aF6819.08837890625
aF-6.4718732833862305
aF57.74169921875
aF296.79449462890625
aF97.71150207519531
aF10980.06640625
aF-112.90171813964844
aF723.6779174804688
aF2.0599207878112793
aF260.8564453125
aF1000.9971923828125
aF2125.005859375
aF1.1573055982589722
aF1583.205078125
aF14562.9541015625
aF1.0305310487747192
aF10.787508964538574
aF59.009212493896484
aF371.78533935546875
aF1011.9266967773438
aF5509.32177734375
aF615.2164306640625
aF-109.02326202392578
aF731.4673461914062
aF8.949789047241211
aF2830.814697265625
aF66.99873352050781
aF21.815509796142578
aF5019.46533203125
aF3236.299560546875
aF1.3226494789123535
aF32.250457763671875
aF370.6676330566406
aF8.547280311584473
aF4.670334339141846
aF333.8985290527344
aF8.237919807434082
aF1.5545406341552734
aF1758.6324462890625
aF1444.992919921875
aF92.8220443725586
aF-0.3292887210845947
aF-19.68294334411621
aF155.50564575195312
aF155.66375732421875
aF-18.149749755859375
aF5024.650390625
aF2223.01171875
aF1163.71484375
aF-90.27867126464844
aF592.68896484375
aF-412.49810791015625
aF7059.75341796875
aF6164.17236328125
aF3847.35888671875
aF-1.9424223899841309
aF10541.314453125
aF420.6639709472656
aF1.4663994312286377
aF4.377402305603027
aF4.0905280113220215
aF4019.793701171875
aF1357.03173828125
aF480.41546630859375
aF0.5760709047317505
aF-27.035202026367188
aF0.6140431761741638
aF86.16119384765625
aF-58.05084228515625
aF-13.676128387451172
aF0.08764530718326569
aF5640.54296875
aF953.3600463867188
aF143.26828002929688
aF3615.00537109375
aF12704.306640625
aF-12.623623847961426
aF-35.76692199707031
aF7995.06396484375
aF13166.572265625
aF225.21173095703125
aF834.7498779296875
aF3690.657958984375
aF-18.31106185913086
aF1.7873417139053345
aF14472.4228515625
aF3.9554684162139893
aF34475.20703125
aF7.593862533569336
aF4261.40380859375
aF0.795073390007019
aF16111.798828125
aF295.6783447265625
aF477.91180419921875
aF730.7974853515625
aF-59.31353759765625
aF2565.499755859375
aF22.080934524536133
aF20520.412109375
aF-0.35605818033218384
aF-201.4373016357422
aF15159.7578125
aF3378.208984375
aF109.77447509765625
aF5215.73095703125
aF-132.0081329345703
aF802.0908203125
aF3642.719482421875
aF5043.29150390625
aF7286.8369140625
aF11579.083984375
aF-95.38426208496094
aF9463.767578125
aF2858.69384765625
aF-5.541417121887207
aF0.29382917284965515
aF9054.708984375
aF1245.9541015625
aF3725.809326171875
aF6796.44921875
aF3116.92822265625
aF8426.1513671875
aF5661.1591796875
aF1083.750732421875
aF10214.3759765625
aF327.9945373535156
aF8354.853515625
aF734.6038208007812
aF-59.35141372680664
aF5767.99755859375
aF4581.5595703125
aF5734.94775390625
aF5.368563652038574
aF2813.63037109375
aF22.734588623046875
aF1223.750244140625
aF666.44873046875
aF32.11309814453125
aF231.55357360839844
aF3541.6279296875
aF18781.412109375
aF6282.49462890625
aF0.30203282833099365
aF0.9909006953239441
aF172.05018615722656
aF1214.9105224609375
aF82.16412353515625
aF363.80181884765625
aF1659.2115478515625
aF0.6502591371536255
aF60.1732063293457
aF3.2538881301879883
aF1505.70947265625
aF560.9091186523438
aF1846.4522705078125
aF2934.329833984375
aF4.168100357055664
aF31.325767517089844
aF5172.93603515625
aF-116.45158386230469
aF148.8392333984375
aF2844.140625
aF838.31298828125
aF47.98161315917969
aF4.411781311035156
aF47.344234466552734
aF2711.881103515625
aF0.9642024040222168
aF0.8525802493095398
aF140.02407836914062
aF99.96674346923828
aF280.3576965332031
aF0.6107682585716248
aF0.5800873637199402
aF1486.8031005859375
aF0.5973848104476929
aF148.37200927734375
aF14.682220458984375
aF15.90771484375
aF0.7536572813987732
aF0.7984715104103088
aF2257.068115234375
aF0.8107986450195312
aF807.56640625
aF36.98331069946289
aF1336.05322265625
aF6023.35205078125
aF7920.9697265625
aF2360.558837890625
aF5904.9140625
aF1.2045401334762573
aF1197.25732421875
aF15900.7783203125
aF27966.58203125
aF146.7434539794922
aF2005.5628662109375
aF63.83162307739258
aF-7.658387660980225
aF71.12134552001953
aF8096.357421875
aF53.31788635253906
aF2549.220947265625
aF1718.558837890625
aF119.65491485595703
aF2968.803466796875
aF-197.0997314453125
aF1419.06201171875
aF5497.265625
aF15621.39453125
aF7948.0771484375
aF3285.1357421875
aF8086.46240234375
aF531.716552734375
aF5.500809669494629
aF166.50491333007812
aF-70.40763092041016
aF-14.967759132385254
aF97.9243392944336
aF-24.901710510253906
aF498.04827880859375
aF117.32893371582031
aF796.8859252929688
aF-30.972017288208008
aF10969.0390625
aF-4731.64306640625
aF24.667749404907227
aF1816.7540283203125
aF-615.9612426757812
aF-1479.4234619140625
aF323.63372802734375
aF9330.654296875
aF609.5272216796875
aF1119.3284912109375
aF22.871747970581055
aF20.16029167175293
aF-35.12640380859375
aF987.4684448242188
aF1440.4544677734375
aF8142.40869140625
aF1.2178632020950317
aF248.70591735839844
aF304.8921813964844
aF701.5753173828125
aF-174.2927703857422
aF336.8586120605469
aF305.9740295410156
aF398.3372497558594
aF54.94720458984375
aF13753.2802734375
aF-2.9953529834747314
aF9.917170524597168
aF375.13531494140625
aF46.52690124511719
aF11809.0078125
aF1019.4854125976562
aF-44.66702651977539
aF123.40259552001953
aF262.3831481933594
aF-58.85474395751953
aF1536.403564453125
aF130.27685546875
aF13489.77734375
aF116.53732299804688
aF239.07107543945312
aF3539.954345703125
aF49.65018844604492
aF13202.775390625
aF6649.6884765625
aF9640.564453125
aF851.09814453125
aF18095.08984375
aF24.16358757019043
aF8174.3876953125
aF0.7735322117805481
aF2.2554140090942383
aF0.2341393381357193
aF7898.80615234375
aF2339.928466796875
aF-39.846435546875
aF0.24659061431884766
aF2.651378870010376
aF402.5551452636719
aF231.2964324951172
aF-1.4574778079986572
aF288.27581787109375
aF8.013129234313965
aF2.138150215148926
aF8943.7509765625
aF23.771760940551758
aF25.40058135986328
aF5853.0859375
aF-100.86310577392578
aF-7.485602378845215
aF9144.427734375
aF1675.8388671875
aF1236.374267578125
aF15.99582576751709
aF889.3780517578125
aF-106.06173706054688
aF-5.046083450317383
aF10027.6513671875
aF2332.562744140625
aF-139.15660095214844
aF406.8648376464844
aF353.4178466796875
aF6591.123046875
aF-3.5877084732055664
aF1020.02734375
aF12939.91015625
aF5824.89990234375
aF442.90277099609375
aF3.3851561546325684
aF2103.111572265625
aF-79.8104476928711
aF3033.379150390625
aF1.20372474193573
aF0.07981465011835098
aF44.19911193847656
aF-101.16217041015625
aF7396.1552734375
aF358.1598205566406
aF0.27734747529029846
aF4093.668212890625
aF-1.731576681137085
aF14.493510246276855
aF414.8687744140625
aF4480.232421875
aF391.3246765136719
aF3990.853759765625
aF246.25941467285156
aF13872.9033203125
aF0.46075233817100525
aF1286.9195556640625
aF127.9369125366211
aF22.461681365966797
aF7650.05224609375
aF4.105042457580566
aF4874.3017578125
aF8424.1875
aF70.54724884033203
aF5183.02783203125
aF2281.344482421875
aF2.889432191848755
aF1.964595079421997
aF4.988996982574463
aF2070.7744140625
aF449.94549560546875
aF-124.20569610595703
aF201.24215698242188
aF7354.349609375
aF9527.7333984375
aF14.654390335083008
aF1.3947468996047974
aF-269.08673095703125
aF0.4416031837463379
aF673.828369140625
aF-167.99472045898438
aF0.2142825871706009
aF-375.7622375488281
aF693.0748291015625
aF3033.927490234375
aF3.088836431503296
aF2556.446044921875
aF800.5423583984375
aF10206.8359375
aF1.0974453687667847
aF565.6354370117188
aF823.3727416992188
aF1509.406494140625
aF179.17135620117188
aF55.90525436401367
aF3539.217529296875
aF231.77664184570312
aF-12.99139404296875
aF33.48054885864258
aF3248.41259765625
aF0.860825777053833
aF-216.0924835205078
aF3733.1142578125
aF97.4168930053711
aF5.534663677215576
aF559.7744140625
aF6369.1201171875
aF-105.16596221923828
aF2808.037353515625
aF0.22396725416183472
aF6764.24853515625
aF-21.77067756652832
aF-85.24685668945312
aF25.732616424560547
aF1135.77001953125
aF1467.973388671875
aF-96.33917236328125
aF31.0950870513916
aF2179.235595703125
aF538.9064331054688
aF4770.6064453125
aF-62.01536560058594
aF6027.501953125
aF1765.3902587890625
aF-15.291586875915527
aF7101.9404296875
aF-40.55145263671875
aF-14.434443473815918
aF1442.5220947265625
aF1435.097900390625
aF-35.131126403808594
aF376.8047790527344
aF142.13417053222656
aF10920.2744140625
aF1117.3851318359375
aF4558.38720703125
aF39.561439514160156
aF-148.75418090820312
aF1397.46923828125
aF337.3627014160156
aF6658.70458984375
aF-92.85125732421875
aF0.09270936995744705
aF-11.683016777038574
aF738.1854858398438
aF865.0281982421875
aF2843.216796875
aF285.12353515625
aF977.4877319335938
aF2904.781982421875
aF5008.31884765625
aF3725.55810546875
aF18.003826141357422
aF6485.3310546875
aF1.0074901580810547
aF336.4632873535156
aF2.7308545112609863
aF6348.83740234375
aF1287.944091796875
aF1480.09130859375
aF3.462275266647339
aF1660.71728515625
aF13597.3525390625
aF-127.50882720947266
aF2.946547269821167
aF908.3748168945312
aF1105.5919189453125
aF5.924551010131836
aF4625.482421875
aF8874.7880859375
aF108.45096588134766
aF19.5983943939209
aF-85.78296661376953
aF3255.845947265625
aF86.92696380615234
aF122.97386932373047
aF6401.833984375
aF14.219539642333984
aF333.3673400878906
aF880.7159423828125
aF344.2779235839844
aF257.8621520996094
aF369.8385314941406
aF3647.30712890625
aF254.45758056640625
aF941.0365600585938
aF6689.52685546875
aF337.13134765625
aF119.99105072021484
aF1393.4671630859375
aF38.82007598876953
aF2790.250732421875
aF3645.850341796875
aF1186.1966552734375
aF-12.423257827758789
aF2880.966064453125
aF547.474609375
aF9713.9697265625
aF1.970837950706482
aF172.49172973632812
aF545.466796875
aF190.7330322265625
aF52.61103057861328
aF11579.6005859375
aF1746.19091796875
aF19.12319564819336
aF77.86628723144531
aF359.28277587890625
aF177.6547393798828
aF1659.16162109375
aF10818.4677734375
aF2183.426513671875
aF65.09479522705078
aF-170.89898681640625
aF898.06689453125
aF244.60330200195312
aF552.1539916992188
aF8975.2548828125
aF529.0198364257812
aF-7.2906646728515625
aF3945.965576171875
aF18.088544845581055
aF-13.991284370422363
aF156.5540771484375
aF138.15640258789062
aF59.82814407348633
aF260.23284912109375
aF12773.638671875
aF234.01361083984375
aF1754.2303466796875
aF10.606797218322754
aF339.2350158691406
aF3.7947616577148438
aF64.57140350341797
aF1218.18212890625
aF6148.7890625
aF66.39348602294922
aF488.8356628417969
aF225.78228759765625
aF-76.05136108398438
aF2194.48193359375
aF71.00016784667969
aF3085.63720703125
aF9685.927734375
aF2809.95361328125
aF13440.9638671875
aF50.568626403808594
aF55.619651794433594
aF54.68052291870117
aF30.81818199157715
aF13371.779296875
aF2604.439453125
aF24.001800537109375
aF647.8755493164062
aF1398.7603759765625
aF5376.5517578125
aF-138.00949096679688
aF16.961761474609375
aF358.276123046875
aF10134.8525390625
aF76.03189849853516
aF2957.96875
aF-112.95027923583984
aF-65.74299621582031
aF54.1992073059082
aF1549.5093994140625
aF3.1064846515655518
aF4640.14111328125
aF5856.43310546875
aF420.1300354003906
aF-13.135647773742676
aF3776.61669921875
aF833.4319458007812
aF-14.779099464416504
aF5023.31494140625
aF23.93416404724121
aF-0.6788032650947571
aF7388.892578125
aF5626.6923828125
aF8.25122356414795
aF6360.79931640625
aF7846.1953125
aF5783.31640625
aF16687.263671875
aF3490.35009765625
aF6359.1064453125
aF3893.74560546875
aF11.740582466125488
aF793.451171875
aF35.058067321777344
aF36.53620529174805
aF-394.700927734375
aF1771.1790771484375
aF182.74195861816406
aF2393.446533203125
aF-45.590511322021484
aF2581.420166015625
aF-1.073836326599121
aF8.809398651123047
aF141.64004516601562
aF127.5455093383789
aF107.27723693847656
aF7862.86865234375
aF1881.8466796875
aF2925.957275390625
aF6651.10302734375
aF23.724609375
aF20117.888671875
aF9213.8349609375
aF4640.8544921875
aF25674.017578125
aF533.81787109375
aF-24.5075626373291
aF5815.9365234375
aF4838.57666015625
aF-275.5198974609375
aF1872.36376953125
aF8.766337394714355
aF0.051759254187345505
aF978.2647705078125
aF122.5147476196289
aF518.8117065429688
aF855.6282348632812
aF95.89342498779297
aF0.09639324247837067
aF3.5182151794433594
aF-9.6678466796875
aF-12.497989654541016
aF-11.08447265625
aF48.59641647338867
aF8568.2314453125
aF285.3694763183594
aF-59.12201690673828
aF156.9135284423828
aF39.8138313293457
aF537.6466674804688
aF1110.836669921875
aF5514.5439453125
aF7249.96533203125
aF7558.51416015625
aF3995.861328125
aF910.6612548828125
aF149.01715087890625
aF6797.02587890625
aF813.6075439453125
aF7842.76220703125
aF1221.575927734375
aF-113.9248275756836
aF2718.9072265625
aF301.1368408203125
aF2685.138916015625
aF187.13290405273438
aF3096.365966796875
aF108.8877182006836
aF-70.39405059814453
aF523.0927124023438
aF1172.0245361328125
aF75.89768981933594
aF11895.90234375
aF3542.1669921875
aF278.1673889160156
aF-60.283058166503906
aF1022.506591796875
aF2585.306396484375
aF3813.695068359375
aF1730.4942626953125
aF-0.748390793800354
aF812.7118530273438
aF13471.4287109375
aF4.499206066131592
aF82.15655517578125
aF3295.556396484375
aF16.77222442626953
aF0.5075947642326355
aF0.5266357064247131
aF246.97576904296875
aF65.83843231201172
aF733.9771728515625
aF-11.012925148010254
aF53.134498596191406
aF-164.7650146484375
aF22.9285945892334
aF62.020938873291016
aF0.47942012548446655
aF9.812337875366211
aF1930.046142578125
aF-74.6777572631836
aF44.848182678222656
aF5904.978515625
aF-67.68523406982422
aF41.67790222167969
aF2012.402099609375
aF1805.3662109375
aF8.509721755981445
aF2.9196248054504395
aF105.12681579589844
aF-43.92179870605469
aF1536.211669921875
aF1631.0538330078125
aF0.5490061044692993
aF21.97478485107422
aF405.1265869140625
aF4867.31689453125
aF301.7320861816406
aF98.94255828857422
aF4909.91455078125
aF1075.81982421875
aF-28.07659149169922
aF481.9597473144531
aF128.06454467773438
aF-384.7474670410156
aF1008.3784790039062
aF-67.06483459472656
aF6.76823091506958
aF165.10247802734375
aF2775.2275390625
aF937.8145751953125
aF504.2040100097656
aF16261.79296875
aF432.27691650390625
aF2809.83642578125
aF562.9183959960938
aF6028.02392578125
aF4088.13720703125
aF255.2051544189453
aF-27.463973999023438
aF150.99951171875
aF30.594690322875977
aF2.0690596103668213
aF1383.8336181640625
aF2798.294189453125
aF1279.1424560546875
aF1.3553849458694458
aF2446.431884765625
aF343.3972473144531
aF4034.4990234375
aF39.45722198486328
aF266.269287109375
aF68.93790435791016
aF599.2655639648438
aF28154.703125
aF360.7745056152344
aF504.0848693847656
aF34.463287353515625
aF-148.95303344726562
aF861.2252197265625
aF1.7308084964752197
aF1683.619873046875
aF4275.0546875
aF11523.1298828125
aF-2.2240874767303467
aF628.1088256835938
aF258.2417297363281
aF41.91969299316406
aF556.3854370117188
aF10347.458984375
aF666.9172973632812
aF818.243408203125
aF-6.491311073303223
aF43.37985610961914
aF2231.569091796875
aF102.40533447265625
aF15220.548828125
aF8861.0361328125
aF-45.923614501953125
aF128.63246154785156
aF193.52511596679688
aF2794.361083984375
aF69.33611297607422
aF9.30848503112793
aF-76.20391845703125
aF167.50294494628906
aF133.29318237304688
aF-25.484193801879883
aF1298.2509765625
aF303.4806823730469
aF6.371251583099365
aF96.8613510131836
aF233.1951904296875
aF436.20733642578125
aF428.3980712890625
aF35.5977783203125
aF7198.0634765625
aF51.6759147644043
aF-27.5284423828125
aF10670.751953125
aF143.78131103515625
aF-25.65178108215332
aF70.1987533569336
aF381.7620849609375
aF215.04283142089844
aF18.873231887817383
aF-36.412960052490234
aF-121.68914794921875
aF459.14715576171875
aF36.795894622802734
aF78.79029083251953
aF396.4010009765625
aF-5.7455973625183105
aF4194.10498046875
aF20.444284439086914
aF5092.22314453125
aF220.42515563964844
aF705.338134765625
aF963.4666748046875
aF91.9484634399414
aF34.246192932128906
aF217.4236602783203
aF242.22793579101562
aF4946.75341796875
aF-2.0525426864624023
aF163.83009338378906
aF661.705078125
aF2376.408935546875
aF194.5341339111328
aF13.629701614379883
aF2124.30419921875
aF80.3066635131836
aF2943.13818359375
aF8645.1826171875
aF2294.381591796875
aF76.29362487792969
aF-58.45608139038086
aF2826.33251953125
aF-9.47415828704834e-05
aF4.920126438140869
aF987.1884155273438
aF9.577315330505371
aF5897.88427734375
aF19.9368953704834
aF9761.2900390625
aF408.03173828125
aF85.15328216552734
aF10826.8525390625
aF572.5021362304688
aF344.2915344238281
aF7.224882125854492
aF2285.542236328125
aF-1.0562845468521118
aF-132.34274291992188
aF11242.7880859375
aF3.1171205043792725
aF-3.143768310546875
aF-25.643333435058594
aF16.052928924560547
aF2834.50830078125
aF10.691509246826172
aF3852.5556640625
aF2444.539794921875
aF23562.767578125
aF3467.574462890625
aF8517.3818359375
aF-56.61061096191406
aF-61.021114349365234
aF15.866728782653809
aF1102.0516357421875
aF3097.42236328125
aF76.44319915771484
aF1134.8817138671875
aF12720.6640625
aF3113.15771484375
aF3566.431640625
aF235.2101593017578
aF6551.64501953125
aF-220.45803833007812
aF3909.864013671875
aF-68.64939880371094
aF4.026020526885986
aF13.711533546447754
aF0.3615853786468506
aF7561.0703125
aF-0.8939626216888428
aF3112.147216796875
aF205.0088348388672
aF5.224776744842529
aF1709.5413818359375
aF15395.28515625
aF3526.100830078125
aF2.7592051029205322
aF3405.875
aF5499.83447265625
aF-16.311466217041016
aF3213.82275390625
aF-36.58771514892578
aF2578.074951171875
aF317.8375549316406
aF5531.89990234375
aF8447.533203125
aF1.2057065963745117
aF2395.82958984375
aF6797.73388671875
aF11228.564453125
aF7500.6083984375
aF233.93417358398438
aF-0.9374793767929077
aF6612.78662109375
aF262.7851257324219
aF12433.1845703125
aF-2.4322385787963867
aF-42.96569061279297
aF3.6404623985290527
aF3991.432373046875
aF5098.3984375
aF-119.66502380371094
aF24.075183868408203
aF4723.45166015625
aF2351.67236328125
aF3759.97265625
aF4240.0263671875
aF-22.581668853759766
aF14943.056640625
aF310.50787353515625
aF612.3125
aF92.22755432128906
aF4458.54345703125
aF0.3431585729122162
aF-135.86631774902344
aF3046.32373046875
aF2120.513671875
aF15161.4794921875
aF18171.857421875
aF6420.41748046875
aF1633.4891357421875
aF14032.880859375
aF1818.15771484375
aF1576.440673828125
aF2560.09521484375
aF7.2045512199401855
aF5358.3251953125
aF-100.96746826171875
aF-30.923173904418945
aF-6.857484340667725
aF-36.25606918334961
aF9382.2529296875
aF1316.9345703125
aF-2.9494099617004395
aF-14.34404468536377
aF2494.731689453125
aF37.3173828125
aF8340.1728515625
aF1557.21337890625
aF4176.2705078125
aF1842.704345703125
aF-12.300785064697266
aF-113.84715270996094
aF12.07983112335205
aF-18.3961181640625
aF294.0953063964844
aF3837.296142578125
aF6039.908203125
aF4892.4560546875
aF9.551276206970215
aF11795.287109375
aF6159.7646484375
aF1534.72998046875
aF706.0883178710938
aF-9.129412651062012
aF2599.14892578125
aF385.27630615234375
aF5020.4677734375
aF11.116264343261719
aF9276.4326171875
aF6631.47705078125
aF-74.12934112548828
aF1449.4442138671875
aF10693.279296875
aF566.364990234375
aF4538.66748046875
aF15346.421875
aF4727.59765625
aF2497.233642578125
aF8680.125
aF9938.076171875
aF-11.66146183013916
aF22107.283203125
aF7472.86181640625
aF2907.234619140625
aF11.04659366607666
aF5948.10986328125
aF11319.8603515625
aF1.8162673711776733
aF6402.302734375
aF7957.43017578125
aF1514.905029296875
aF5374.75146484375
aF414.478515625
aF-2.450990676879883
aF3412.781494140625
aF7.034792423248291
aF1958.316162109375
aF-86.80911254882812
aF-72.1197280883789
aF-10.693492889404297
aF-0.576978862285614
aF150.14227294921875
aF-47.524169921875
aF0.9130116105079651
aF-58.302581787109375
aF7073.86669921875
aF-36.23984909057617
aF17118.2734375
aF-47.460121154785156
aF-5.524569988250732
aF27.631900787353516
aF-15.6329345703125
aF3529.82958984375
aF12733.5185546875
aF134.24465942382812
aF3279.68701171875
aF7010.296875
aF2731.048828125
aF21.51131820678711
aF2372.77197265625
aF1726.9537353515625
aF-0.9423771500587463
aF180.9801025390625
aF267.8271789550781
aF3710.2470703125
aF-18.50414276123047
aF39.782833099365234
aF1731.0184326171875
aF6132.95166015625
aF14903.1767578125
aF-6.1156511306762695
aF1203.8966064453125
aF640.9640502929688
aF-6.223802089691162
aF16112.2255859375
aF784.236083984375
aF0.02662070095539093
aF6636.8017578125
aF23.8050479888916
aF621.9917602539062
aF-61.03728485107422
aF1.510985016822815
aF758.6599731445312
aF2429.047119140625
aF-2.7306442260742188
aF562.3138427734375
aF23.584184646606445
aF4.99505090713501
aF111.55804443359375
aF1190.3126220703125
aF4069.257568359375
aF6068.44482421875
aF-36.63566970825195
aF0.16589941084384918
aF3603.9619140625
aF6123.4951171875
aF2605.59033203125
aF1.50777006149292
aF47.51711654663086
aF515.2207641601562
aF2442.962890625
aF4187.53857421875
aF131.77232360839844
aF-126.43539428710938
aF3.1688437461853027
aF3.7333247661590576
aF278.25006103515625
aF-43.750823974609375
aF831.494873046875
aF1198.580078125
aF-31.07048797607422
aF11294.3095703125
aF1374.59716796875
aF-17.043842315673828
aF10239.65234375
aF0.398195743560791
aF238.9072265625
aF-39.87702178955078
aF9275.0029296875
aF-0.5323262214660645
aF4018.321044921875
aF-50.20946502685547
aF14261.806640625
aF9.3599214553833
aF1007.483154296875
aF-3.355320453643799
aF-127.05037689208984
aF4729.8134765625
aF1786.3802490234375
aF8296.765625
aF1725.7152099609375
aF-1.05094313621521
aF3598.34814453125
aF564.1527099609375
aF4902.85888671875
aF2700.36181640625
aF2272.90771484375
aF-23.918853759765625
aF-248.13088989257812
aF-151.3617706298828
aF0.29969537258148193
aF31.390527725219727
aF6.993524074554443
aF90.38858795166016
aF1.918285608291626
aF1429.9534912109375
aF-0.7700657844543457
aF6300.06884765625
aF400.0207214355469
aF6117.556640625
aF9389.30859375
aF475.2189025878906
aF13062.39453125
aF2957.07666015625
aF15.546527862548828
aF-209.1195526123047
aF-7.319660186767578
aF6960.55322265625
aF1266.594970703125
aF14089.3125
aF2783.117431640625
aF1179.126220703125
aF5840.28857421875
aF0.18089036643505096
aF1503.1561279296875
aF9178.8876953125
aF-152.43765258789062
aF14733.4482421875
aF-46.62137222290039
aF67.92792510986328
aF0.11794572323560715
aF-40.50445556640625
aF4122.4794921875
aF-174.61727905273438
aF8.806726455688477
aF4158.34765625
aF-2.036903142929077
aF0.3899868130683899
aF-61623.20703125
aF-3.4759902954101562
aF11041.4384765625
aF8255.4619140625
aF20666.275390625
aF13362.58984375
aF9334.83984375
aF0.01841607503592968
aF-6.98412561416626
aF3213.757080078125
aF0.8641399145126343
aF9972.1904296875
aF2932.169921875
aF9832.724609375
aF3309.795166015625
aF2.4123220443725586
aF2665.961669921875
aF17.679353713989258
aF530.6177368164062
aF2971.03955078125
aF72.463134765625
aF0.09634262323379517
aF377.7633361816406
aF4114.4345703125
aF5955.18798828125
aF1.2891403436660767
aF128.387939453125
aF5113.9892578125
aF2210.4091796875
aF5723.28759765625
aF2570.724609375
aF7804.06591796875
aF13164.720703125
aF1462.3853759765625
aF52.30525207519531
aF3.2788801193237305
aF48.85663604736328
aF842.1055908203125
aF21.832494735717773
aF483.71783447265625
aF2350.38037109375
aF22.718095779418945
aF0.11993217468261719
aF799.05322265625
aF3.444091558456421
aF3.0239434242248535
aF7704.58154296875
aF5067.1728515625
aF1808.498046875
aF1.1212400197982788
aF172.84727478027344
aF2.2819418907165527
aF2728.20703125
aF16.664453506469727
aF1.5729538202285767
aF4115.8271484375
aF1.2147958278656006
aF1986.4508056640625
aF3609.75048828125
aF7.527028560638428
aF0.41623497009277344
aF2620.86962890625
aF3641.875732421875
aF310.04058837890625
aF1101.0992431640625
aF113.17621612548828
aF4657.8193359375
aF86.68890380859375
aF6300.77783203125
aF1.6068824529647827
aF0.0874413400888443
aF287.8154602050781
aF25.793100357055664
aF3.2168002128601074
aF152.07261657714844
aF1133.36572265625
aF3989.889892578125
aF0.1559453159570694
aF6516.8642578125
aF1149.91552734375
aF1227.1832275390625
aF774.6021728515625
aF125.15194702148438
aF2852.02783203125
aF2.8031363487243652
aF-8.853224754333496
aF2197.6796875
aF-157.25588989257812
aF7.2251877784729
aF2767.48486328125
aF-1.500044822692871
aF-16.79375457763672
aF-37.16594696044922
aF2.2855849266052246
aF7920.7314453125
aF21.203462600708008
aF6581.4765625
aF763.465087890625
aF32.40023422241211
aF144.9191436767578
aF276.18121337890625
aF5594.52490234375
aF1047.5631103515625
aF1590.2745361328125
aF1001.4962158203125
aF494.15142822265625
aF508.8094177246094
aF10.640886306762695
aF860.7658081054688
aF18562.693359375
aF1922.3787841796875
aF9.15732192993164
aF2708.596435546875
aF1156.867431640625
aF3440.020751953125
aF6460.8212890625
aF2043.2952880859375
aF3698.226806640625
aF5645.28662109375
aF2516.3349609375
aF55.95406723022461
aF14.580694198608398
aF3725.080078125
aF981.1520385742188
aF0.36370906233787537
aF7008.22705078125
aF9086.408203125
aF10691.3671875
aF-114.819580078125
aF2854.343505859375
aF19.530820846557617
aF3.7346785068511963
aF2667.3916015625
aF6784.18408203125
aF3.296647548675537
aF5206.091796875
aF10330.7421875
aF0.014552591368556023
aF262.7637634277344
aF1668.9349365234375
aF12378.5966796875
aF12317.345703125
aF-0.03832318261265755
aF2515.95166015625
aF7058.10986328125
aF4965.68310546875
aF0.06953457742929459
aF5827.98828125
aF5542.6396484375
aF15780.4921875
aF19927.19140625
aF4383.25244140625
aF12.059447288513184
aF4847.3388671875
aF0.09654589742422104
aF13.073641777038574
aF448.13543701171875
aF10898.3525390625
aF6006.19140625
aF-54.06862258911133
aF746.0439453125
aF11241.2412109375
aF46.646697998046875
aF626.9672241210938
aF1146.592041015625
aF8465.908203125
aF0.5933558940887451
aF-28.73030662536621
aF2787.418701171875
aF-3.583307981491089
aF-185.02406311035156
aF769.0494384765625
aF3653.245849609375
aF0.013419277966022491
aF2849.1328125
aF-23.93596839904785
aF926.0424194335938
aF62.836181640625
aF-246.98269653320312
aF8.248615264892578
aF12.648426055908203
aF-4.242836952209473
aF980.7191162109375
aF-34.87936782836914
aF-3.651442289352417
aF518.7054443359375
aF7.026192665100098
aF1125.4378662109375
aF14.2955322265625
aF0.029264887794852257
aF2067.041015625
aF42.961769104003906
aF1158.966796875
aF0.9629127383232117
aF11.145658493041992
aF2596.230224609375
aF2378.7197265625
aF1334.2890625
aF860.806396484375
aF-2.779644012451172
aF110.17325592041016
aF0.8695021271705627
aF309.03302001953125
aF0.5622517466545105
aF4.3863844871521
aF134.62303161621094
aF1149.5845947265625
aF33.33294677734375
aF289.6781921386719
aF901.8170776367188
aF451.9894714355469
aF97.53963470458984
aF16.238521575927734
aF-273.5029602050781
aF0.3411657214164734
aF0.03162349388003349
aF150.7610321044922
aF1438.9683837890625
aF223.75550842285156
aF-6.105050563812256
aF0.27156370878219604
aF456.52301025390625
aF286.29718017578125
aF408.3549499511719
aF6422.69873046875
aF1619.5843505859375
aF-90.00457000732422
aF0.25618717074394226
aF2156.421630859375
aF966.6890258789062
aF-9.57947063446045
aF-11.153975486755371
aF6576.05029296875
aF852.7449951171875
aF-8.737847328186035
aF110.1446533203125
aF-63.14784622192383
aF6001.4296875
aF-16.02977752685547
aF5168.80908203125
aF0.06224809214472771
aF3646.541015625
aF-31.663944244384766
aF-62.850364685058594
aF2587.086669921875
aF6508.447265625
aF1533.021240234375
aF-0.44025295972824097
aF-1.6951751708984375
aF2324.921630859375
aF-0.2287667691707611
aF567.7037353515625
aF121.29953002929688
aF-95.42625427246094
aF-2.6954779624938965
aF2873.78173828125
aF-16.297582626342773
aF525.9537353515625
aF-85.76876831054688
aF3361.563720703125
aF-12.84445858001709
aF3614.279296875
aF2259.312255859375
aF-59.86830520629883
aF338.36627197265625
aF63.32387924194336
aF6479.3330078125
aF4756.29248046875
aF6037.1533203125
aF778.0409545898438
aF374.3107604980469
aF3775.64013671875
aF3879.07666015625
aF2765.909912109375
aF6877.27587890625
aF-63.81455612182617
aF15.415226936340332
aF1259.26953125
aF5.9171624183654785
aF112.64607238769531
aF273.63104248046875
aF-20.221961975097656
aF982.8037719726562
aF296.4830322265625
aF-25.53228187561035
aF280.43853759765625
aF391.3101806640625
aF342.6883850097656
aF1480.1998291015625
aF403.7388610839844
aF3.760883331298828
aF393.1856994628906
aF560.1609497070312
aF-5.072750568389893
aF-100.06475067138672
aF2804.344970703125
aF1170.511962890625
aF506.8891296386719
aF1139.0140380859375
aF2189.828857421875
aF-253.8077850341797
aF9484.5791015625
aF796.8512573242188
aF1518.94287109375
aF-37.612388610839844
aF311.53753662109375
aF67.21894836425781
aF1.276887059211731
aF-2.9175071716308594
aF13347.3330078125
aF2.861454963684082
aF9.611151695251465
aF3384.50732421875
aF14.529653549194336
aF3596.784912109375
aF5334.66015625
aF202.66915893554688
aF287.0600891113281
aF925.50146484375
aF316.452392578125
aF11.843482971191406
aF112.43028259277344
aF19.477567672729492
aF-135.02142333984375
aF418.204345703125
aF9859.052734375
aF60.8956298828125
aF453.6177062988281
aF139.8411102294922
aF75.4741439819336
aF349.3464050292969
aF586.879638671875
aF7529.23046875
aF39.57249450683594
aF31.65546989440918
aF8662.96875
aF4976.95751953125
aF6476.705078125
aF13.500656127929688
aF462.5820617675781
aF-204.98915100097656
aF-1.0365514755249023
aF1948.2860107421875
aF-76.19221496582031
aF963.8155517578125
aF4221.46435546875
aF3.3896186351776123
aF-19.958919525146484
aF-54.68388748168945
aF337.46820068359375
aF228.11785888671875
aF5.693351745605469
aF0.9682649970054626
aF1116.3409423828125
aF-0.16242462396621704
aF1212.2132568359375
aF1.4859850406646729
aF1210.3558349609375
aF3831.66943359375
aF1.633502721786499
aF-160.6116180419922
aF488.6105041503906
aF1891.39892578125
aF2320.5888671875
aF20.824464797973633
aF4.877069473266602
aF8500.283203125
aF0.5572609305381775
aF-270.00128173828125
aF54.228031158447266
aF100.58173370361328
aF6758.05615234375
aF13539.7158203125
aF2.549636125564575
aF-0.36803174018859863
aF174.34368896484375
aF0.9331009984016418
aF18.687896728515625
aF1447.2750244140625
aF3.752207040786743
aF1505.7159423828125
aF422.6024475097656
aF0.126270592212677
aF530.0601196289062
aF9721.6943359375
aF550.9312744140625
aF0.2916787266731262
aF429.877197265625
aF513.961181640625
aF573.8236083984375
aF979.7134399414062
aF5802.18505859375
aF1298.7928466796875
aF1055.1168212890625
aF-6.5546722412109375
aF0.13542699813842773
aF3.670008420944214
aF0.24525503814220428
aF9055.8740234375
aF6985.18896484375
aF0.18878497183322906
aF5624.26220703125
aF1109.03955078125
aF0.3610689043998718
aF4984.8486328125
aF-4.724525451660156
aF1091.6444091796875
aF7806.357421875
aF-45.125701904296875
aF960.3070068359375
aF1.4161763191223145
aF6239.20703125
aF549.2670288085938
aF0.3669045567512512
aF13997.283203125
aF0.39448660612106323
aF5198.95068359375
aF5071.51025390625
aF0.4655526876449585
aF-44.529903411865234
aF5515.46533203125
aF164.10128784179688
aF2340.20361328125
aF3.305143356323242
aF2669.623291015625
aF6551.30322265625
aF1.1878082752227783
aF0.19614233076572418
aF-1.701145887374878
aF276.0337829589844
aF4192.03173828125
aF-0.926324725151062
aF463.97711181640625
aF1370.31884765625
aF299.13580322265625
aF-230.31466674804688
aF0.28044629096984863
aF-1.356395959854126
aF1748.345703125
aF8470.3505859375
aF260.7406005859375
aF3614.802001953125
aF243.58477783203125
aF0.31370246410369873
aF-0.11520007252693176
aF95.62507629394531
aF1405.290283203125
aF604.7662353515625
aF1722.78173828125
aF6491.13232421875
aF2940.961669921875
aF0.22882258892059326
aF9888.083984375
aF3835.205322265625
aF7853.39404296875
aF0.8291603922843933
aF305.98577880859375
aF0.9786598682403564
aF52.05970001220703
aF10.02869987487793
aF2107.07470703125
aF58.58613586425781
aF1917.9649658203125
aF10134.2998046875
aF45.54593276977539
aF238.77548217773438
aF7066.62646484375
aF256.17913818359375
aF1844.21337890625
aF1830.9393310546875
aF4914.2431640625
aF0.16734224557876587
aF21.12054443359375
aF3220.259033203125
aF1063.7706298828125
aF23.780017852783203
aF2003.9810791015625
aF1993.71630859375
aF-73.58384704589844
aF13649.2724609375
aF6203.8720703125
aF-2.7137064933776855
aF2686.76708984375
aF9750.8974609375
aF7530.92578125
aF260.64239501953125
aF4210.9609375
aF1558.302490234375
aF33.20368957519531
aF79.0504150390625
aF-222.59983825683594
aF4422.2568359375
aF692.49853515625
aF5530.29833984375
aF103.55961608886719
aF-85.73900604248047
aF18.290634155273438
aF670.3953857421875
aF21.06783103942871
aF17692.58203125
aF570.7232666015625
aF-68.53317260742188
aF515.3466796875
aF707.7793579101562
aF4439.74560546875
aF46.233802795410156
aF496.3973083496094
aF6113.42919921875
aF577.3828125
aF1092.3543701171875
aF94.4349365234375
aF6.431789875030518
aF4.66471529006958
aF0.9136995077133179
aF-73.31585693359375
aF1410.9600830078125
aF0.8427770733833313
aF-0.015390142798423767
aF1784.804443359375
aF9060.64453125
aF-1.995469331741333
aF216.0092010498047
aF325.9342956542969
aF5.616612434387207
aF6464.0546875
aF9.377163887023926
aF-42.84767150878906
aF9.792539596557617
aF2165.9375
aF2.4676315784454346
aF-8.600495338439941
aF418.6683654785156
aF2.565049171447754
aF835.1280517578125
aF2.9164681434631348
aF-94.73826599121094
aF9136.8779296875
aF3.5311896800994873
aF63.62925720214844
aF1336.0294189453125
aF0.1302960216999054
aF312.0326232910156
aF4366.09423828125
aF2944.00048828125
aF838.2337646484375
aF4025.408447265625
aF177.9792022705078
aF5380.94580078125
aF2879.8720703125
aF5258.90673828125
aF11.048789978027344
aF683.1592407226562
aF2.716362714767456
aF3611.990234375
aF383.472412109375
aF69.0501480102539
aF-137.60958862304688
aF702.0211791992188
aF59.980491638183594
aF-89.30223846435547
aF8842.0732421875
aF466.7368469238281
aF381.416259765625
aF121.4308853149414
aF2277.3056640625
aF-254.70166015625
aF18.683765411376953
aF317.98992919921875
aF674.9155883789062
aF-68.79033660888672
aF1541.3033447265625
aF23.312101364135742
aF-25.64158821105957
aF600.2136840820312
aF7.568414688110352
aF579.4595336914062
aF5.169641017913818
aF599.593994140625
aF2104.104736328125
aF1363.40673828125
aF6.453545093536377
aF226.10452270507812
aF12.220147132873535
aF4.155460357666016
aF75.70465087890625
aF633.2396850585938
aF19.15899658203125
aF5.995757102966309
aF11.456454277038574
aF1055.474365234375
aF41.3945426940918
aF6.589933395385742
aF12.465274810791016
aF216.77392578125
aF-29.45275115966797
aF608.43115234375
aF30.252605438232422
aF704.564453125
aF18.17831039428711
aF23.978776931762695
aF529.0985717773438
aF207.72691345214844
aF1103.149169921875
aF145.09779357910156
aF11.372391700744629
aF554.88427734375
aF222.63558959960938
aF169.9138946533203
aF396.79119873046875
aF376.09454345703125
aF12.803801536560059
aF-354.6891174316406
aF164.22134399414062
aF37.530426025390625
aF328.1252746582031
aF5.289587020874023
aF3232.28076171875
aF44.96238327026367
aF0.6538130044937134
aF322.6715393066406
aF6.412558078765869
aF95.20906829833984
aF700.8109741210938
aF229.70904541015625
aF11.438302040100098
aF15.311312675476074
aF91.34163665771484
aF7.318523406982422
aF10.59546947479248
aF10758.841796875
aF603.93798828125
aF2.5490877628326416
aF1828.2708740234375
aF-189.52268981933594
aF-114.8228759765625
aF825.0220947265625
aF350.843994140625
aF206.99069213867188
aF70.0434799194336
aF5.298107624053955
aF786.7342529296875
aF6.775881290435791
aF79.20332336425781
aF-166.02810668945312
aF6.31643533706665
aF-4.340055465698242
aF78.71245574951172
aF0.38691240549087524
aF184.57650756835938
aF3.55934739112854
aF3387.074462890625
aF740.1069946289062
aF91.36886596679688
aF321.292236328125
aF-90.90957641601562
aF76.8804702758789
aF29.596994400024414
aF36.3143424987793
aF11.858560562133789
aF-164.5297088623047
aF15.03347396850586
aF592.4161376953125
aF310.4630432128906
aF8.616061210632324
aF98.17233276367188
aF1391.81298828125
aF6.1379241943359375
aF278.5792541503906
aF1.9258222579956055
aF187.126953125
aF2.950573682785034
aF129.10072326660156
aF124.33819580078125
aF33.78284454345703
aF2.213223695755005
aF1958.8720703125
aF-0.21938347816467285
aF-0.17885242402553558
aF121.58808898925781
aF619.0151977539062
aF286.5369567871094
aF2029.45068359375
aF17.902748107910156
aF1.408839464187622
aF-27.254955291748047
aF-2.86826229095459
aF60.212677001953125
aF4613.63134765625
aF2024.855224609375
aF1.6833655834197998
aF228.31143188476562
aF4.42309045791626
aF-0.0012415836099535227
aF49.87871170043945
aF-66.60736083984375
aF224.56268310546875
aF254.63665771484375
aF4005.849853515625
aF24.233661651611328
aF507.4620056152344
aF3700.314453125
aF50.2651481628418
aF6.95926570892334
aF7474.65576171875
aF6307.728515625
aF510.16558837890625
aF86.83924865722656
aF6.614964485168457
aF114.41911315917969
aF378.17962646484375
aF2185.802978515625
aF1721.245849609375
aF274.9172668457031
aF-70.50364685058594
aF15.096845626831055
aF5797.8525390625
aF633.1878051757812
aF2791.713623046875
aF14684.9560546875
aF1138.2637939453125
aF636.1858520507812
aF613.8193969726562
aF12.574176788330078
aF11.670166015625
aF810.5416259765625
aF259.2925720214844
aF14444.68359375
aF-47.602848052978516
aF235.29698181152344
aF1452.218994140625
aF7.50388765335083
aF432.5230712890625
aF-68.83323669433594
aF217.16757202148438
aF-1.5278282165527344
aF8.97315788269043
aF410.92706298828125
aF12433.5546875
aF2738.272705078125
aF99.323974609375
aF1449.6156005859375
aF1981.7130126953125
aF249.7830047607422
aF202.45962524414062
aF3588.343505859375
aF701.1328735351562
aF4176.1552734375
aF20.05344581604004
aF1353.775390625
aF15.508498191833496
aF-22.085220336914062
aF5.059446334838867
aF850.9579467773438
aF-116.85567474365234
aF-53.985904693603516
aF3.7501516342163086
aF71.05074310302734
aF401.77337646484375
aF6.736418724060059
aF37.58910369873047
aF587.4747314453125
aF623.9036865234375
aF466.73028564453125
aF147.61001586914062
aF191.71820068359375
aF26.50063133239746
aF7.828503608703613
aF884.3173217773438
aF450.5914001464844
aF39.58488082885742
aF1541.6956787109375
aF-15.205538749694824
aF197.18527221679688
aF1980.004150390625
aF1578.481201171875
aF34.76213836669922
aF6.694931983947754
aF607.171630859375
aF2.4387195110321045
aF626.2703247070312
aF99.58690643310547
aF755.9518432617188
aF2.7259738445281982
aF458.38623046875
aF18.053083419799805
aF97.3198013305664
aF11364.2822265625
aF53.98553466796875
aF33.904422760009766
aF8822.236328125
aF15.603123664855957
aF420.7721862792969
aF890.489501953125
aF135.9986572265625
aF4.757754325866699
aF1591.614501953125
aF449.9295654296875
aF4003.82421875
aF77.5065689086914
aF590.402587890625
aF1157.3348388671875
aF43.53787612915039
aF852.1171264648438
aF1704.4144287109375
aF51.97036361694336
aF24.220569610595703
aF54.11479568481445
aF488.0562438964844
aF528.8860473632812
aF10.35278606414795
aF56.98197937011719
aF2942.631103515625
aF3513.348388671875
aF557.6031494140625
aF17.63503074645996
aF35.2181282043457
aF704.1390991210938
aF241.4400634765625
aF1534.4776611328125
aF4797.775390625
aF91.30320739746094
aF626.4801025390625
aF190.09852600097656
aF94.07424926757812
aF216.23524475097656
aF60.43278503417969
aF208.2845458984375
aF2690.822998046875
aF458.32763671875
aF369.227783203125
aF-219.4342041015625
aF4.22325325012207
aF188.5807342529297
aF153.2988739013672
aF5.267752647399902
aF295.1485900878906
aF8.66622543334961
aF0.6607939600944519
aF3.6958253383636475
aF5048.5234375
aF-179.74342346191406
aF3319.81884765625
aF-182.003173828125
aF-37.66302490234375
aF16.637483596801758
aF73.79237365722656
aF-126.44515991210938
aF424.3353576660156
aF0.06652402132749557
aF39.370338439941406
aF57.40532302856445
aF0.4962034523487091
aF310.4787292480469
aF0.48285973072052
aF285.5634765625
aF3.7139506340026855
aF149.151611328125
aF157.08770751953125
aF51.62753677368164
aF-19.91202163696289
aF14050.1025390625
aF35.82856750488281
aF332.90911865234375
aF721.9150390625
aF174.03562927246094
aF173.40370178222656
aF9760.4228515625
aF2.9261906147003174
aF1007.4251708984375
aF137.07177734375
aF8809.546875
aF4096.46142578125
aF61.594093322753906
aF34.34529113769531
aF1888.09765625
aF15600.244140625
aF9.587225914001465
aF1.6550228595733643
aF1640.2633056640625
aF4.707821846008301
aF0.13932234048843384
aF-69.2959976196289
aF1353.243896484375
aF7127.2646484375
aF2675.46630859375
aF7040.05419921875
aF59.56542205810547
aF-28.041406631469727
aF2861.33447265625
aF-40583.37109375
aF7.968051910400391
aF5602.54443359375
aF6126.0634765625
aF12.757174491882324
aF-98.17916107177734
aF4221.2080078125
aF626.3932495117188
aF261.14569091796875
aF-20.99641990661621
aF3606.087890625
aF-217.91683959960938
aF647.9531860351562
aF7023.09912109375
aF3169.799560546875
aF3982.8642578125
aF-102.19110107421875
aF8248.4853515625
aF303.7139587402344
aF10357.779296875
aF4511.21142578125
aF-40215.64453125
aF5163.70654296875
aF5443.30859375
aF15128.7109375
aF10379.48828125
aF5028.47314453125
aF3022.566650390625
aF1821.7772216796875
aF138.71725463867188
aF8931.91796875
aF2597.0439453125
aF4742.85595703125
aF397.48101806640625
aF9703.34765625
aF1483.7548828125
aF6.7462968826293945
aF11900.9716796875
aF-23.42702293395996
aF-136.97683715820312
aF2106.620849609375
aF-4.53271484375
aF0.863525927066803
aF3788.385009765625
aF5912.271484375
aF2336.303466796875
aF7.81756067276001
aF6.407466411590576
aF1603.899658203125
aF2092.82568359375
aF-36326.9375
aF9.050496101379395
aF13169.3515625
aF2220.40771484375
aF10297.7216796875
aF-49.94795608520508
aF8604.435546875
aF0.8521456122398376
aF17359.6328125
aF4576.2744140625
aF1.3338031768798828
aF17600.91015625
aF9310.388671875
aF6468.275390625
aF8561.412109375
aF5811.18505859375
aF-61249.41015625
aF64.8182144165039
aF2.310190200805664
aF3595.61962890625
aF9703.4873046875
aF-15.551851272583008
aF-16.574865341186523
aF3473.470947265625
aF3714.665771484375
aF-23.933130264282227
aF4.696878910064697
aF-50156.75390625
aF1208.2884521484375
aF5471.3310546875
aF2680.90087890625
aF3953.3671875
aF4948.140625
aF1883.3643798828125
aF351.90167236328125
aF3081.69580078125
aF342.38006591796875
aF3607.19384765625
aF-16.507638931274414
aF3285.3486328125
aF9170.693359375
aF6710.99365234375
aF-0.18347175419330597
aF3725.38818359375
aF6592.83837890625
aF2579.415771484375
aF3441.227783203125
aF8672.1123046875
aF2724.286865234375
aF32.9603385925293
aF973.385009765625
aF6335.51318359375
aF1480.7113037109375
aF12447.8291015625
aF-9.113876342773438
aF1165.7264404296875
aF59.474159240722656
aF1062.532470703125
aF4747.58203125
aF151.2961883544922
aF1121.11669921875
aF3.894285202026367
aF485.1331787109375
aF381.3929138183594
aF596.3118896484375
aF655.4056396484375
aF1692.099853515625
aF95.74346923828125
aF1.5152438879013062
aF213.7700653076172
aF540.4363403320312
aF16453.61328125
aF954.2706298828125
aF751.7852172851562
aF-133.9375457763672
aF859.0918579101562
aF5882.80322265625
aF4.082494258880615
aF2803.4580078125
aF9205.640625
aF1790.7249755859375
aF4956.703125
aF99.14840698242188
aF9.180110931396484
aF-273.48101806640625
aF1625.9090576171875
aF-55.69027328491211
aF9510.044921875
aF70.00032806396484
aF2640.509765625
aF827.8507080078125
aF806.66796875
aF6195.7978515625
aF556.1097412109375
aF578.4635620117188
aF3698.562744140625
aF1155.142333984375
aF1472.9989013671875
aF13.82138442993164
aF13926.9169921875
aF0.7410800457000732
aF1095.556640625
aF31.355627059936523
aF89.48250579833984
aF401.0526123046875
aF925.8577880859375
aF344.6587219238281
aF763.6521606445312
aF1878.9039306640625
aF3641.00146484375
aF7175.7041015625
aF1721.3692626953125
aF119.0590591430664
aF4.962466716766357
aF6032.95703125
aF4331.8720703125
aF2354.029296875
aF-32.132041931152344
aF7213.9150390625
aF619.5364990234375
aF549.2819213867188
aF862.3076171875
aF487.14105224609375
aF13384.7255859375
aF476.9920349121094
aF596.8482055664062
aF736.0264892578125
aF372.9129638671875
aF4268.201171875
aF973.0828247070312
aF1822.330078125
aF15.010892868041992
aF19412.638671875
aF3170.963623046875
aF5263.271484375
aF-118.58853912353516
aF11381.6962890625
aF5952.1455078125
aF0.016971226781606674
aF9243.908203125
aF276.646240234375
aF5.546724319458008
aF3985.85302734375
aF3118.30908203125
aF6938.0048828125
aF-51.023651123046875
aF3760.312255859375
aF325.1974182128906
aF-55.74100875854492
aF876.6204833984375
aF2667.75537109375
aF3.9604837894439697
aF3792.33203125
aF41.65179443359375
aF11.068997383117676
aF2746.728759765625
aF1.718158483505249
aF1467.987548828125
aF4473.75048828125
aF304.3263244628906
aF4159.248046875
aF0.20273457467556
aF505.8488464355469
aF2962.888671875
aF1.3542333841323853
aF850.6599731445312
aF4179.806640625
aF1330.5589599609375
aF144.11856079101562
aF-5.382138729095459
aF1478.5675048828125
aF3577.5283203125
aF1079.15625
aF197.3108673095703
aF-166.8228302001953
aF101.2257308959961
aF5.170285701751709
aF472.68402099609375
aF5.388434410095215
aF713.5103149414062
aF5740.685546875
aF1106.262451171875
aF550.9488525390625
aF0.5737251043319702
aF1.8993829488754272
aF614.366455078125
aF1.6268864870071411
aF0.4052984118461609
aF119.7950668334961
aF678.7084350585938
aF123.59782409667969
aF597.2974853515625
aF438.29931640625
aF394.86480712890625
aF398.93017578125
aF-17.03620719909668
aF603.3797607421875
aF2652.10986328125
aF0.19020286202430725
aF-15.113947868347168
aF8099.607421875
aF16897.37890625
aF2302.9912109375
aF6384.8408203125
aF13185.8955078125
aF2508.3671875
aF465.728759765625
aF5585.025390625
aF5.57758092880249
aF2177.818359375
aF3218.58642578125
aF86.34041595458984
aF5.086328983306885
aF1576.6119384765625
aF0.6603831052780151
aF10548.1728515625
aF7564.50341796875
aF4099.8203125
aF8582.849609375
aF4925.9453125
aF785.1826171875
aF4.075034141540527
aF212.08807373046875
aF6.253586769104004
aF6032.07421875
aF1103.9503173828125
aF1.591988444328308
aF3453.644775390625
aF2099.4462890625
aF3780.889892578125
aF590.7182006835938
aF1669.513671875
aF1891.84912109375
aF541.6681518554688
aF1906.2950439453125
aF894.101318359375
aF809.4434814453125
aF0.3265000283718109
aF604.67626953125
aF231.6609649658203
aF153.2445068359375
aF3.516700506210327
aF467.5584716796875
aF7645.55078125
aF0.14525827765464783
aF1778.2808837890625
aF11127.341796875
aF941.162841796875
aF1.0788652896881104
aF8538.478515625
aF2.7570512294769287
aF0.18024757504463196
aF2841.060791015625
aF607.3909301757812
aF883.629638671875
aF1140.6966552734375
aF718.1716918945312
aF1749.4423828125
aF7941.439453125
aF4665.57568359375
aF1163.990234375
aF1.5101696252822876
aF1085.0694580078125
aF6213.27001953125
aF6.273053169250488
aF0.23163744807243347
aF2.5233402252197266
aF2566.0390625
aF1.0137137174606323
aF13200.23046875
aF1353.5430908203125
aF539.7372436523438
aF0.7542030215263367
aF1.7410928010940552
aF1009.4309692382812
aF3319.540283203125
aF782.2939453125
aF1275.80615234375
aF-120.06509399414062
aF7794.77490234375
aF6.692438125610352
aF3597.484619140625
aF7863.63037109375
aF5.640420436859131
aF3302.07421875
aF1.2080106735229492
aF2027.2333984375
aF839.314697265625
aF3.9756851196289062
aF29.553634643554688
aF11.362020492553711
aF1189.167724609375
aF1569.9093017578125
aF2232.452880859375
aF2375.864990234375
aF1248.3609619140625
aF5.3684587478637695
aF5.972743034362793
aF670.00048828125
aF2632.591796875
aF1369.161376953125
aF3777.28515625
aF0.009646369144320488
aF1009.49951171875
aF29016.044921875
aF609.89599609375
aF21.341724395751953
aF4882.0751953125
aF538.49462890625
aF9.394439697265625
aF7082.15185546875
aF3776.819091796875
aF844.9713745117188
aF404.2406005859375
aF13975.3310546875
aF7.098716735839844
aF8865.6328125
aF5242.78369140625
aF11765.1474609375
aF5787.6533203125
aF141.16639709472656
aF8641.607421875
aF19.35348129272461
aF14.790217399597168
aF4706.79150390625
aF2492.839111328125
aF675.0650634765625
aF2117.020751953125
aF1524.447509765625
aF-0.3684130311012268
aF-25.253067016601562
aF6792.3427734375
aF2731.00732421875
aF0.24364005029201508
aF3262.4404296875
aF4115.34765625
aF635.1328125
aF1124.1810302734375
aF9769.33984375
aF231.96148681640625
aF-12.443933486938477
aF2194.06298828125
aF1885.9908447265625
aF-2.883164405822754
aF-3.4781179428100586
aF7851.24755859375
aF1841.5279541015625
aF4304.26953125
aF8645.3828125
aF3300.777099609375
aF5561.90185546875
aF81.60628509521484
aF10039.3681640625
aF3.0184166431427
aF4721.26318359375
aF782.147216796875
aF781.0267333984375
aF4928.89453125
aF1464.5323486328125
aF117.33853912353516
aF2902.82666015625
aF1007.2448120117188
aF2804.85546875
aF1684.4068603515625
aF872.1692504882812
aF1184.3438720703125
aF1066.5723876953125
aF106.56181335449219
aF441.6251220703125
aF1910.016845703125
aF-190.0719451904297
aF2250.0380859375
aF1446.1712646484375
aF3812.55615234375
aF391.9397888183594
aF295.1661071777344
aF459.3660583496094
aF0.4659698009490967
aF580.5546875
aF281.7898864746094
aF4500.80224609375
aF7176.765625
aF133.95997619628906
aF3397.211669921875
aF444.2962951660156
aF11075.0576171875
aF580.6124877929688
aF3208.74609375
aF475.5940856933594
aF736.9022216796875
aF273.64813232421875
aF3247.074462890625
aF2927.654052734375
aF1183.4351806640625
aF0.39426007866859436
aF4455.01123046875
aF980.4713134765625
aF8709.0634765625
aF-0.0841541588306427
aF115.74205780029297
aF9662.0263671875
aF12484.26953125
aF386.3195495605469
aF28715.3984375
aF-62.784908294677734
aF-18.626218795776367
aF1278.2119140625
aF2496.685546875
aF5834.22509765625
aF11.052186012268066
aF96.80654907226562
aF130.45692443847656
aF56.757904052734375
aF3.1907851696014404
aF3.3684139251708984
aF2216.335693359375
aF116.45911407470703
aF143.90199279785156
aF209.25697326660156
aF5595.56396484375
aF2044.12158203125
aF248.25912475585938
aF1756.7109375
aF273.8371276855469
aF236.4530029296875
aF22.098674774169922
aF531.1197509765625
aF205.98558044433594
aF476.6935119628906
aF287.2582702636719
aF191.98626708984375
aF0.14063161611557007
aF18.91490936279297
aF-0.9164902567863464
aF601.7831420898438
aF0.19406679272651672
aF3182.695068359375
aF1509.31298828125
aF1204.576171875
aF256.42254638671875
aF21.561267852783203
aF682.8887329101562
aF0.2905932664871216
aF702.9156494140625
aF7078.43994140625
aF-101.69864654541016
aF1400.9796142578125
aF1245.2620849609375
aF1823.037353515625
aF6666.41943359375
aF6512.6181640625
aF0.016249090433120728
aF1182.3900146484375
aF2223.9462890625
aF8241.791015625
aF330.7662658691406
aF1168.986572265625
aF717.4971313476562
aF1332.427734375
aF6124.685546875
aF13.19926929473877
aF1999.6702880859375
aF395.7888488769531
aF-132.07296752929688
aF397.96661376953125
aF1.412722110748291
aF596.4222412109375
aF156.23719787597656
aF510.18280029296875
aF-244.6609344482422
aF1439.7545166015625
aF1016.1214599609375
aF776.6809692382812
aF2802.26513671875
aF1.60419499874115
aF-209.30174255371094
aF1.8100836277008057
aF1.9092262983322144
aF2624.61865234375
aF3991.35791015625
aF-216.52194213867188
aF2271.63525390625
aF536.8646240234375
aF10939.849609375
aF212.7552032470703
aF314.1288757324219
aF4.4894890785217285
aF0.7870618104934692
aF225.6577911376953
aF346.3943786621094
aF91.63622283935547
aF314.2807312011719
aF315.9476013183594
aF1128.5194091796875
aF3015.749267578125
aF25.834590911865234
aF380.9239501953125
aF2476.97314453125
aF523.1416625976562
aF376.3106994628906
aF406.0435791015625
aF1.0971288681030273
aF139.56517028808594
aF29.353796005249023
aF902.1675415039062
aF897.725341796875
aF1650.48095703125
aF-347.21124267578125
aF126.65863800048828
aF-45.029239654541016
aF2982.20849609375
aF1.6672192811965942
aF400.60791015625
aF7456.9453125
aF78.818603515625
aF317.8166809082031
aF1.052304744720459
aF1166.2705078125
aF191.3313446044922
aF208.36407470703125
aF203.48861694335938
aF2.5389928817749023
aF161.881591796875
aF364.0186767578125
aF132.03224182128906
aF143.05844116210938
aF663.549072265625
aF3501.593017578125
aF207.0449981689453
aF210.33981323242188
aF346.2972717285156
aF200.8664093017578
aF3.5660653114318848
aF1089.2386474609375
aF113.99604034423828
aF155.01168823242188
aF129.3220672607422
aF237.27978515625
aF7.943857669830322
aF110.08988952636719
aF451.4188537597656
aF139.57530212402344
aF8698.47265625
aF235.1607208251953
aF-0.9081277251243591
aF345.0843200683594
aF265.7928771972656
aF-15.841867446899414
aF160.88681030273438
aF126.53272247314453
aF-217.4946746826172
aF3612.947265625
aF120.02406311035156
aF145.446533203125
aF108.6092529296875
aF118.52861785888672
aF-29.320016860961914
aF1.1156597137451172
aF-39.370460510253906
aF302.68896484375
aF291.40869140625
aF1530.360107421875
aF-73.86863708496094
aF3953.5830078125
aF-4.863450527191162
aF1.4032255411148071
aF3.254220724105835
aF145.7056121826172
aF269.1200866699219
aF71.5162124633789
aF120.46400451660156
aF246.6173553466797
aF0.9705661535263062
aF492.0479736328125
aF251.9062957763672
aF0.8989303112030029
aF4708.88916015625
aF1.0286673307418823
aF47.70161819458008
aF2.909681558609009
aF0.6543835401535034
aF276.6525573730469
aF0.6422039270401001
aF636.461669921875
aF1.5065133571624756
aF-10.106576919555664
aF-10.165245056152344
aF-8.10058879852295
aF267.81524658203125
aF820.4845581054688
aF616.3377075195312
aF250.91627502441406
aF522.052978515625
aF1.2967090606689453
aF193.32705688476562
aF46.421470642089844
aF194.5219268798828
aF558.8545532226562
aF0.6257508397102356
aF233.2972412109375
aF2.9033522605895996
aF15156.630859375
aF50.68387222290039
aF303.67626953125
aF279.58099365234375
aF1317.3631591796875
aF-17.407983779907227
aF95.37480163574219
aF213.1640625
aF-18.364290237426758
aF450.3328857421875
aF0.7345097064971924
aF708.5001831054688
aF1.7723166942596436
aF285.7449951171875
aF1153.79052734375
aF9289.650390625
aF508.3130798339844
aF448.41033935546875
aF-155.55242919921875
aF-4.030760288238525
aF246.6014862060547
aF129.08746337890625
aF6420.82421875
aF3320.69384765625
aF3044.530029296875
aF11561.3095703125
aF2537.206787109375
aF651.3447265625
aF684.838134765625
aF12168.3525390625
aF23.437191009521484
aF1340.4609375
aF-2.7659478187561035
aF115.40261840820312
aF3928.823974609375
aF5.6222662925720215
aF2401.57373046875
aF8777.1689453125
aF6.103456497192383
aF37.44780731201172
aF3.314786672592163
aF6.968377113342285
aF-1.2409157752990723
aF-4.5448408126831055
aF154.31521606445312
aF1.2352436780929565
aF-3.2455759048461914
aF10.90944766998291
aF35.72079849243164
aF7.519115924835205
aF226.98716735839844
aF3784.3994140625
aF4.007207870483398
aF82.10108947753906
aF-10.91549015045166
aF4.622033596038818
aF10.132417678833008
aF5414.259765625
aF3904.66357421875
aF283.4681701660156
aF18.201187133789062
aF710.5499877929688
aF-2.6178221702575684
aF359.93597412109375
aF71.24408721923828
aF16422.453125
aF81.27289581298828
aF10.25145435333252
aF2187.1533203125
aF1.3085800409317017
aF603.6818237304688
aF20.08277130126953
aF5.194520473480225
aF922.3987426757812
aF11.795062065124512
aF2753.180908203125
aF-191.3111572265625
aF-43.394737243652344
aF18.154510498046875
aF1106.87744140625
aF242.9868927001953
aF7768.94091796875
aF2.9145047664642334
aF1.4733444452285767
aF1137.7518310546875
aF95.26904296875
aF256.7069091796875
aF1060.8626708984375
aF243.67669677734375
aF2128.699951171875
aF7.56884765625
aF-45.34559631347656
aF2199.592529296875
aF2721.71875
aF2326.522216796875
aF-3.287975311279297
aF1.6549876928329468
aF3493.4482421875
aF1784.4229736328125
aF2643.104248046875
aF0.1681230068206787
aF947.571533203125
aF498.1560974121094
aF0.7685783505439758
aF940.41552734375
aF394.86773681640625
aF7.597207546234131
aF6879.2890625
aF-12.090532302856445
aF2454.560791015625
aF-40.30488586425781
aF1.1899415254592896
aF1.9158000946044922
aF-0.8473870754241943
aF765.4180908203125
aF0.5122366547584534
aF4754.208984375
aF4.707803726196289
aF181.5060272216797
aF4753.73388671875
aF0.045530013740062714
aF7720.1123046875
aF99.1460189819336
aF56.51007843017578
aF183.39532470703125
aF124.30054473876953
aF223.4673614501953
aF4923.8310546875
aF7198.60302734375
aF1985.803955078125
aF2.9964609146118164
aF2.8140869140625
aF2.7232210636138916
aF0.03335250914096832
aF4.664876937866211
aF651.8270263671875
aF161.1393585205078
aF314.84844970703125
aF40.438568115234375
aF2113.638916015625
aF4.334222316741943
aF0.033058393746614456
aF59.674560546875
aF1149.4315185546875
aF6971.9970703125
aF65.91901397705078
aF3874.945556640625
aF0.1500777006149292
aF-130.16732788085938
aF1.2507169246673584
aF1532.96337890625
aF6738.19580078125
aF1635.797607421875
aF1251.04931640625
aF1053.1162109375
aF-0.7456706166267395
aF82.55670166015625
aF-0.17660224437713623
aF9.74484634399414
aF5738.86669921875
aF10836.62890625
aF79.57076263427734
aF797.5033569335938
aF1204.8248291015625
aF609.9508056640625
aF1292.2205810546875
aF1936.1064453125
aF0.12384858727455139
aF3990.885498046875
aF-2.392092227935791
aF2807.707275390625
aF-0.8599038124084473
aF796.7528686523438
aF368.7328186035156
aF1.3005748987197876
aF6223.95703125
aF43.63875198364258
aF0.051058538258075714
aF946.9918823242188
aF2937.376953125
aF2226.6318359375
aF2.037081480026245
aF9901.376953125
aF44.03013229370117
aF-0.0029946574941277504
aF169.46319580078125
aF619.322998046875
aF3277.938232421875
aF649.2868041992188
aF8282.8955078125
aF591.3342895507812
aF106.94097900390625
aF311.7643737792969
aF284.27655029296875
aF10.22571849822998
aF1.5783560276031494
aF-8.059455871582031
asS'score'
p3
(lp4
F-529.0
aF-524.0
aF-510.0
aF-510.0
aF-488.0
aF-488.0
aF-519.0
aF-523.0
aF-496.0
aF-516.0
aF-493.0
aF-502.0
aF-591.0
aF-519.0
aF-507.0
aF-512.0
aF-487.0
aF-504.0
aF-523.0
aF-501.0
aF-503.0
aF-487.0
aF-490.0
aF-496.0
aF-530.0
aF-501.0
aF-513.0
aF-499.0
aF-522.0
aF-496.0
aF-511.0
aF-498.0
aF-489.0
aF-498.0
aF-514.0
aF-542.0
aF-516.0
aF-491.0
aF-480.0
aF-481.0
aF-522.0
aF-692.0
aF-477.0
aF-554.0
aF-488.0
aF-479.0
aF-485.0
aF-490.0
aF-483.0
aF-508.0
aF-484.0
aF-489.0
aF-489.0
aF-486.0
aF-504.0
aF-493.0
aF-472.0
aF-476.0
aF-489.0
aF-478.0
aF-488.0
aF-482.0
aF-477.0
aF-468.0
aF-474.0
aF-484.0
aF-488.0
aF-490.0
aF-481.0
aF-483.0
aF-498.0
aF-518.0
aF-502.0
aF-495.0
aF-477.0
aF-513.0
aF-481.0
aF-508.0
aF-493.0
aF-492.0
aF-495.0
aF-577.0
aF-503.0
aF-487.0
aF-494.0
aF-477.0
aF-493.0
aF-487.0
aF-484.0
aF-491.0
aF-484.0
aF-499.0
aF-480.0
aF-503.0
aF-500.0
aF-485.0
aF-474.0
aF-487.0
aF-486.0
aF-487.0
aF-459.0
aF-484.0
aF-494.0
aF-498.0
aF-524.0
aF-477.0
aF-488.0
aF-485.0
aF-510.0
aF-860.0
aF-498.0
aF-473.0
aF-486.0
aF-498.0
aF-595.0
aF-686.0
aF-784.0
aF-497.0
aF-600.0
aF-488.0
aF-480.0
aF-489.0
aF-493.0
aF-608.0
aF-718.0
aF-498.0
aF-477.0
aF-479.0
aF-486.0
aF-493.0
aF-499.0
aF-496.0
aF-511.0
aF-475.0
aF-491.0
aF-491.0
aF-601.0
aF-488.0
aF-494.0
aF-508.0
aF-494.0
aF-513.0
aF-495.0
aF-490.0
aF-508.0
aF-493.0
aF-492.0
aF-478.0
aF-490.0
aF-489.0
aF-492.0
aF-475.0
aF-499.0
aF-550.0
aF-470.0
aF-500.0
aF-623.0
aF-495.0
aF-510.0
aF-509.0
aF-489.0
aF-508.0
aF-490.0
aF-496.0
aF-523.0
aF-491.0
aF-480.0
aF-625.0
aF-481.0
aF-486.0
aF-475.0
aF-475.0
aF-579.0
aF-879.0
aF-529.0
aF-472.0
aF-499.0
aF-506.0
aF-487.0
aF-525.0
aF-495.0
aF-616.0
aF-483.0
aF-487.0
aF-501.0
aF-488.0
aF-504.0
aF-1154.0
aF-481.0
aF-467.0
aF-488.0
aF-479.0
aF-487.0
aF-486.0
aF-795.0
aF-472.0
aF-485.0
aF-550.0
aF-508.0
aF-536.0
aF-486.0
aF-499.0
aF-506.0
aF-552.0
aF-477.0
aF-490.0
aF-486.0
aF-491.0
aF-525.0
aF-488.0
aF-488.0
aF-479.0
aF-485.0
aF-514.0
aF-477.0
aF-495.0
aF-482.0
aF-492.0
aF-487.0
aF-482.0
aF-497.0
aF-480.0
aF-543.0
aF-547.0
aF-503.0
aF-491.0
aF-485.0
aF-502.0
aF-476.0
aF-481.0
aF-489.0
aF-475.0
aF-492.0
aF-481.0
aF-498.0
aF-479.0
aF-489.0
aF-479.0
aF-485.0
aF-483.0
aF-486.0
aF-496.0
aF-555.0
aF-525.0
aF-502.0
aF-487.0
aF-538.0
aF-480.0
aF-478.0
aF-598.0
aF-472.0
aF-475.0
aF-508.0
aF-486.0
aF-488.0
aF-487.0
aF-535.0
aF-487.0
aF-480.0
aF-480.0
aF-486.0
aF-748.0
aF-593.0
aF-564.0
aF-499.0
aF-476.0
aF-486.0
aF-481.0
aF-483.0
aF-471.0
aF-497.0
aF-580.0
aF-479.0
aF-489.0
aF-468.0
aF-489.0
aF-482.0
aF-490.0
aF-534.0
aF-484.0
aF-473.0
aF-477.0
aF-485.0
aF-497.0
aF-489.0
aF-490.0
aF-472.0
aF-473.0
aF-477.0
aF-501.0
aF-476.0
aF-500.0
aF-474.0
aF-520.0
aF-599.0
aF-481.0
aF-484.0
aF-541.0
aF-690.0
aF-478.0
aF-485.0
aF-494.0
aF-673.0
aF-791.0
aF-492.0
aF-487.0
aF-506.0
aF-605.0
aF-487.0
aF-471.0
aF-502.0
aF-485.0
aF-492.0
aF-490.0
aF-475.0
aF-478.0
aF-486.0
aF-486.0
aF-469.0
aF-486.0
aF-480.0
aF-494.0
aF-484.0
aF535.0
aF-476.0
aF-504.0
aF-486.0
aF-504.0
aF-481.0
aF-478.0
aF-479.0
aF-487.0
aF-490.0
aF-483.0
aF-501.0
aF-508.0
aF-514.0
aF-478.0
aF-490.0
aF-480.0
aF-484.0
aF-504.0
aF-482.0
aF-496.0
aF-482.0
aF-481.0
aF-494.0
aF-478.0
aF-654.0
aF-479.0
aF-469.0
aF-508.0
aF-483.0
aF-482.0
aF-519.0
aF-479.0
aF-504.0
aF-489.0
aF-499.0
aF-476.0
aF-482.0
aF-492.0
aF-492.0
aF-478.0
aF-487.0
aF-479.0
aF-477.0
aF-903.0
aF-479.0
aF-534.0
aF-472.0
aF-498.0
aF-498.0
aF-472.0
aF-496.0
aF-588.0
aF-483.0
aF-481.0
aF-477.0
aF-487.0
aF-479.0
aF-530.0
aF-495.0
aF-511.0
aF-506.0
aF-502.0
aF-480.0
aF-489.0
aF-525.0
aF-490.0
aF-475.0
aF-505.0
aF-557.0
aF-481.0
aF-495.0
aF-481.0
aF-581.0
aF-488.0
aF-482.0
aF-472.0
aF-498.0
aF-525.0
aF-469.0
aF-495.0
aF-477.0
aF-483.0
aF-547.0
aF-479.0
aF-480.0
aF-664.0
aF-488.0
aF-475.0
aF-500.0
aF-478.0
aF-481.0
aF-464.0
aF-482.0
aF-464.0
aF-489.0
aF-478.0
aF-488.0
aF-475.0
aF-490.0
aF-489.0
aF-466.0
aF-522.0
aF-482.0
aF-605.0
aF-482.0
aF-481.0
aF-478.0
aF-493.0
aF-506.0
aF-476.0
aF-477.0
aF-493.0
aF-471.0
aF-626.0
aF-473.0
aF-477.0
aF-468.0
aF-476.0
aF-481.0
aF-511.0
aF-477.0
aF-607.0
aF-594.0
aF-498.0
aF-475.0
aF-493.0
aF-489.0
aF-522.0
aF-474.0
aF-562.0
aF-483.0
aF-488.0
aF-482.0
aF-680.0
aF-477.0
aF-472.0
aF-472.0
aF-472.0
aF-493.0
aF-470.0
aF-493.0
aF-479.0
aF-503.0
aF-472.0
aF-526.0
aF-485.0
aF-516.0
aF-465.0
aF-493.0
aF-479.0
aF-579.0
aF-514.0
aF-477.0
aF-477.0
aF-474.0
aF-481.0
aF-479.0
aF-473.0
aF-484.0
aF-495.0
aF-483.0
aF-481.0
aF-530.0
aF-477.0
aF-472.0
aF-474.0
aF-475.0
aF-489.0
aF-486.0
aF-540.0
aF-762.0
aF-479.0
aF-699.0
aF-465.0
aF-470.0
aF-474.0
aF-489.0
aF-763.0
aF-492.0
aF-580.0
aF-480.0
aF-670.0
aF-495.0
aF-520.0
aF-474.0
aF-554.0
aF-471.0
aF-486.0
aF-485.0
aF-627.0
aF-486.0
aF-486.0
aF-465.0
aF-467.0
aF-502.0
aF-555.0
aF-557.0
aF-488.0
aF-475.0
aF-549.0
aF-690.0
aF-475.0
aF-504.0
aF-560.0
aF-472.0
aF-483.0
aF-496.0
aF-470.0
aF-483.0
aF-476.0
aF-490.0
aF-482.0
aF-516.0
aF-488.0
aF-478.0
aF-471.0
aF-537.0
aF-489.0
aF-467.0
aF-456.0
aF-513.0
aF-808.0
aF-477.0
aF-457.0
aF-496.0
aF-466.0
aF-472.0
aF-471.0
aF-499.0
aF-487.0
aF-489.0
aF-469.0
aF-499.0
aF-523.0
aF-483.0
aF-463.0
aF-478.0
aF-468.0
aF-473.0
aF-479.0
aF-468.0
aF-475.0
aF-539.0
aF-474.0
aF-479.0
aF-460.0
aF-475.0
aF-484.0
aF-476.0
aF-468.0
aF-478.0
aF-463.0
aF-470.0
aF-479.0
aF-466.0
aF-479.0
aF-467.0
aF-458.0
aF-516.0
aF-476.0
aF-489.0
aF-530.0
aF-472.0
aF-487.0
aF-470.0
aF-490.0
aF-478.0
aF-475.0
aF-471.0
aF-478.0
aF-478.0
aF-470.0
aF-473.0
aF-507.0
aF-466.0
aF-457.0
aF-486.0
aF-468.0
aF-488.0
aF-467.0
aF-483.0
aF-485.0
aF-481.0
aF-476.0
aF-573.0
aF537.0
aF-487.0
aF-487.0
aF-470.0
aF-502.0
aF-478.0
aF-473.0
aF-475.0
aF-503.0
aF-478.0
aF-488.0
aF-487.0
aF-492.0
aF-528.0
aF-589.0
aF-489.0
aF-475.0
aF-508.0
aF-569.0
aF-558.0
aF-501.0
aF-491.0
aF-478.0
aF-485.0
aF-516.0
aF-477.0
aF-470.0
aF-466.0
aF-477.0
aF-483.0
aF-488.0
aF-470.0
aF-471.0
aF-574.0
aF-483.0
aF-465.0
aF-469.0
aF-474.0
aF-611.0
aF-472.0
aF-469.0
aF-462.0
aF-464.0
aF-469.0
aF-472.0
aF-538.0
aF-490.0
aF-477.0
aF-475.0
aF-475.0
aF-463.0
aF-499.0
aF-469.0
aF-513.0
aF-475.0
aF-476.0
aF-516.0
aF-552.0
aF-476.0
aF-478.0
aF-476.0
aF-492.0
aF-536.0
aF-513.0
aF-468.0
aF-544.0
aF-485.0
aF-468.0
aF-476.0
aF-467.0
aF-482.0
aF-474.0
aF-472.0
aF-463.0
aF-476.0
aF-475.0
aF-614.0
aF-568.0
aF-602.0
aF540.0
aF-470.0
aF-474.0
aF554.0
aF-463.0
aF-477.0
aF-493.0
aF-481.0
aF-466.0
aF-473.0
aF549.0
aF-483.0
aF-476.0
aF-465.0
aF-488.0
aF-477.0
aF-464.0
aF-473.0
aF-468.0
aF-476.0
aF-472.0
aF522.0
aF-460.0
aF-486.0
aF-476.0
aF-475.0
aF-526.0
aF-501.0
aF-484.0
aF-497.0
aF-486.0
aF-506.0
aF-481.0
aF-513.0
aF-521.0
aF-480.0
aF-482.0
aF-482.0
aF-482.0
aF-485.0
aF-475.0
aF-1591.0
aF-491.0
aF-479.0
aF-468.0
aF-495.0
aF-491.0
aF-523.0
aF-481.0
aF-4929.0
aF-485.0
aF-475.0
aF-477.0
aF-489.0
aF-468.0
aF-475.0
aF-472.0
aF-486.0
aF-469.0
aF-494.0
aF-463.0
aF-468.0
aF-472.0
aF-475.0
aF-465.0
aF-469.0
aF-475.0
aF-476.0
aF-460.0
aF-467.0
aF-506.0
aF-452.0
aF-456.0
aF-470.0
aF-461.0
aF-467.0
aF-481.0
aF-466.0
aF-465.0
aF-487.0
aF-491.0
aF-463.0
aF-489.0
aF-469.0
aF552.0
aF-457.0
aF-470.0
aF-472.0
aF-472.0
aF-535.0
aF-500.0
aF-472.0
aF-518.0
aF-491.0
aF-497.0
aF-481.0
aF-479.0
aF-514.0
aF-532.0
aF-537.0
aF-474.0
aF-486.0
aF-463.0
aF-482.0
aF-480.0
aF-471.0
aF-515.0
aF-482.0
aF-515.0
aF-480.0
aF-531.0
aF-483.0
aF-572.0
aF-487.0
aF-578.0
aF-471.0
aF-470.0
aF-586.0
aF-496.0
aF-484.0
aF-506.0
aF-513.0
aF-474.0
aF-496.0
aF-590.0
aF-560.0
aF-468.0
aF-495.0
aF-475.0
aF-567.0
aF-528.0
aF-474.0
aF-492.0
aF-463.0
aF-502.0
aF-517.0
aF-488.0
aF-538.0
aF-458.0
aF-490.0
aF-475.0
aF-466.0
aF-469.0
aF-471.0
aF-479.0
aF-482.0
aF-499.0
aF-475.0
aF-515.0
aF-467.0
aF-454.0
aF-475.0
aF-471.0
aF-463.0
aF-468.0
aF555.0
aF-532.0
aF-465.0
aF-475.0
aF-470.0
aF-451.0
aF-472.0
aF-464.0
aF-481.0
aF-474.0
aF-478.0
aF-601.0
aF-475.0
aF-513.0
aF-495.0
aF-460.0
aF-472.0
aF-489.0
aF-457.0
aF-466.0
aF-463.0
aF-478.0
aF-471.0
aF-475.0
aF-467.0
aF-459.0
aF-460.0
aF-462.0
aF-467.0
aF-478.0
aF536.0
aF-465.0
aF-2633.0
aF-476.0
aF-469.0
aF-486.0
aF-467.0
aF-483.0
aF-498.0
aF-476.0
aF-476.0
aF-483.0
aF-462.0
aF-468.0
aF-468.0
aF-503.0
aF521.0
aF-484.0
aF-471.0
aF-476.0
aF-458.0
aF-467.0
aF-465.0
aF-490.0
aF-473.0
aF514.0
aF-478.0
aF-466.0
aF-486.0
aF-465.0
aF-468.0
aF-476.0
aF-503.0
aF-468.0
aF-462.0
aF-477.0
aF-472.0
aF-488.0
aF-465.0
aF-475.0
aF-517.0
aF-471.0
aF-490.0
aF-464.0
aF-509.0
aF-486.0
aF-475.0
aF-486.0
aF-504.0
aF-490.0
aF-468.0
aF-479.0
aF-468.0
aF-475.0
aF-468.0
aF-459.0
aF-467.0
aF-472.0
aF-474.0
aF-467.0
aF-509.0
aF-494.0
aF-472.0
aF-475.0
aF-472.0
aF-473.0
aF-475.0
aF511.0
aF-463.0
aF-468.0
aF-463.0
aF-473.0
aF-485.0
aF-475.0
aF-475.0
aF-487.0
aF-456.0
aF-520.0
aF-474.0
aF-468.0
aF-475.0
aF-464.0
aF-497.0
aF-475.0
aF-476.0
aF-464.0
aF-473.0
aF-476.0
aF-494.0
aF-492.0
aF-478.0
aF-478.0
aF-458.0
aF-462.0
aF-481.0
aF-454.0
aF-476.0
aF-501.0
aF-481.0
aF-484.0
aF-478.0
aF-463.0
aF-481.0
aF-471.0
aF-464.0
aF-477.0
aF-494.0
aF-459.0
aF-458.0
aF-472.0
aF-463.0
aF-523.0
aF-472.0
aF-486.0
aF-489.0
aF-476.0
aF-463.0
aF-483.0
aF-464.0
aF-488.0
aF-461.0
aF-510.0
aF-486.0
aF-470.0
aF-460.0
aF-465.0
aF-467.0
aF-474.0
aF-476.0
aF-482.0
aF-505.0
aF-462.0
aF-464.0
aF-464.0
aF-460.0
aF-507.0
aF-463.0
aF-474.0
aF-476.0
aF-476.0
aF-466.0
aF-466.0
aF-475.0
aF-474.0
aF-457.0
aF-460.0
aF-482.0
aF-494.0
aF-475.0
aF-494.0
aF-476.0
aF-476.0
aF-468.0
aF-472.0
aF517.0
aF-464.0
aF-476.0
aF-470.0
aF-467.0
aF-470.0
aF-641.0
aF553.0
aF-461.0
aF-495.0
aF-495.0
aF-477.0
aF-489.0
aF-487.0
aF-501.0
aF-492.0
aF-480.0
aF-482.0
aF-484.0
aF-477.0
aF-468.0
aF-485.0
aF-477.0
aF-469.0
aF-494.0
aF-519.0
aF-489.0
aF-483.0
aF-491.0
aF-479.0
aF-510.0
aF-477.0
aF-463.0
aF-464.0
aF-498.0
aF-467.0
aF-470.0
aF-477.0
aF-467.0
aF-467.0
aF-471.0
aF-476.0
aF-470.0
aF-476.0
aF-468.0
aF-479.0
aF-479.0
aF-474.0
aF-476.0
aF-482.0
aF-463.0
aF-465.0
aF-465.0
aF-491.0
aF-580.0
aF-473.0
aF-478.0
aF-464.0
aF-475.0
aF-466.0
aF-475.0
aF-473.0
aF-486.0
aF-463.0
aF-467.0
aF547.0
aF-465.0
aF-466.0
aF-476.0
aF-478.0
aF-483.0
aF-487.0
aF547.0
aF-472.0
aF-480.0
aF-473.0
aF-547.0
aF-473.0
aF549.0
aF-476.0
aF-458.0
aF-478.0
aF-467.0
aF552.0
aF-461.0
aF544.0
aF-463.0
aF-476.0
aF-466.0
aF-476.0
aF-456.0
aF-463.0
aF550.0
aF-463.0
aF-472.0
aF555.0
aF-473.0
aF-467.0
aF-487.0
aF-476.0
aF-469.0
aF-484.0
aF-504.0
aF-468.0
aF-486.0
aF-518.0
aF-561.0
aF-471.0
aF-509.0
aF-489.0
aF-484.0
aF-473.0
aF-478.0
aF-489.0
aF-548.0
aF-467.0
aF-527.0
aF-478.0
aF-477.0
aF-465.0
aF-485.0
aF523.0
aF522.0
aF-476.0
aF-467.0
aF-462.0
aF-475.0
aF540.0
aF-470.0
aF-473.0
aF554.0
aF-463.0
aF-477.0
aF-470.0
aF-465.0
aF-478.0
aF-476.0
aF-464.0
aF-453.0
aF-476.0
aF-464.0
aF-472.0
aF556.0
aF-463.0
aF-469.0
aF-473.0
aF554.0
aF-476.0
aF-472.0
aF-471.0
aF-459.0
aF-472.0
aF-486.0
aF-462.0
aF-3715.0
aF-476.0
aF-485.0
aF-449.0
aF-466.0
aF-463.0
aF-471.0
aF-493.0
aF-475.0
aF554.0
aF-457.0
aF-474.0
aF-525.0
aF553.0
aF-478.0
aF-471.0
aF-461.0
aF-461.0
aF-467.0
aF-465.0
aF514.0
aF-465.0
aF-470.0
aF-449.0
aF-474.0
aF552.0
aF-465.0
aF-472.0
aF-476.0
aF-492.0
aF-493.0
aF-462.0
aF555.0
aF-474.0
aF-471.0
aF-477.0
aF550.0
aF-486.0
aF-472.0
aF553.0
aF-459.0
aF-477.0
aF-472.0
aF-487.0
aF-476.0
aF-472.0
aF553.0
aF-476.0
aF-463.0
aF-467.0
aF-476.0
aF-476.0
aF540.0
aF-475.0
aF-478.0
aF-460.0
aF-476.0
aF-463.0
aF539.0
aF557.0
aF554.0
aF554.0
aF-473.0
aF557.0
aF-475.0
aF-449.0
aF-452.0
aF557.0
aF-450.0
aF-454.0
aF557.0
aF557.0
aF557.0
aF554.0
aF-452.0
aF553.0
aF-454.0
aF-467.0
aF557.0
aF-480.0
aF-477.0
aF-470.0
aF-477.0
aF-468.0
aF-449.0
aF553.0
aF-478.0
aF-466.0
aF-463.0
aF-476.0
aF545.0
aF557.0
aF-461.0
aF-451.0
aF553.0
aF-476.0
aF557.0
aF-463.0
aF-475.0
aF557.0
aF555.0
aF-461.0
aF-463.0
aF-476.0
aF557.0
aF-463.0
aF-540.0
aF-458.0
aF557.0
aF-459.0
aF-473.0
aF-458.0
aF-486.0
aF-465.0
aF-476.0
aF-475.0
aF-476.0
aF-451.0
aF553.0
aF-449.0
aF556.0
aF-464.0
aF557.0
aF538.0
aF-454.0
aF-449.0
aF-463.0
aF-485.0
aF-472.0
aF-457.0
aF-462.0
aF557.0
aF-463.0
aF557.0
aF-462.0
aF-465.0
aF-463.0
aF-463.0
aF557.0
aF-451.0
aF-465.0
aF-473.0
aF-463.0
aF-475.0
aF-452.0
aF-470.0
aF557.0
aF-467.0
aF557.0
aF554.0
aF557.0
aF557.0
aF555.0
aF-451.0
aF-469.0
aF554.0
aF-1897.0
aF557.0
aF-453.0
aF557.0
aF-476.0
aF555.0
aF-465.0
aF557.0
aF-476.0
aF557.0
aF557.0
aF-449.0
aF-467.0
aF-468.0
aF-473.0
aF-449.0
aF-476.0
aF-450.0
aF552.0
aF-449.0
aF-451.0
aF-476.0
aF-453.0
aF550.0
aF-450.0
aF555.0
aF-466.0
aF-451.0
aF557.0
aF557.0
aF-464.0
aF557.0
aF-449.0
aF556.0
aF-463.0
aF-461.0
aF-449.0
aF557.0
aF-463.0
aF555.0
aF-476.0
aF-467.0
aF-455.0
aF557.0
aF-463.0
aF553.0
aF-454.0
aF550.0
aF557.0
aF522.0
aF-454.0
aF556.0
aF-467.0
aF-463.0
aF551.0
aF549.0
aF-455.0
aF-455.0
aF-463.0
aF-463.0
aF-476.0
aF555.0
aF546.0
aF549.0
aF540.0
aF-467.0
aF550.0
aF-465.0
aF-476.0
aF-469.0
aF551.0
aF525.0
aF-476.0
aF548.0
aF553.0
aF-453.0
aF-467.0
aF-465.0
aF-467.0
aF-451.0
aF-458.0
aF557.0
aF-454.0
aF555.0
aF557.0
aF-482.0
aF-462.0
aF557.0
aF-463.0
aF546.0
aF555.0
aF-475.0
aF557.0
aF557.0
aF556.0
aF-463.0
aF-463.0
aF-449.0
aF-772.0
aF557.0
aF554.0
aF-475.0
aF417.0
aF-449.0
aF-463.0
aF-476.0
aF554.0
aF557.0
aF-453.0
aF555.0
aF556.0
aF-459.0
aF-451.0
aF-463.0
aF-464.0
aF-466.0
aF-484.0
aF-454.0
aF-467.0
aF-450.0
aF552.0
aF556.0
aF-475.0
aF557.0
aF-465.0
aF557.0
aF-463.0
aF557.0
aF-461.0
aF-449.0
aF-463.0
aF557.0
aF557.0
aF549.0
aF557.0
aF557.0
aF557.0
aF-450.0
aF557.0
aF-463.0
aF556.0
aF553.0
aF-475.0
aF-463.0
aF557.0
aF-450.0
aF543.0
aF-475.0
aF554.0
aF-463.0
aF-450.0
aF-463.0
aF-476.0
aF554.0
aF-464.0
aF557.0
aF557.0
aF-475.0
aF-449.0
aF-468.0
aF556.0
aF553.0
aF555.0
aF557.0
aF-449.0
aF-468.0
aF-476.0
aF555.0
aF-476.0
aF-463.0
aF-475.0
aF-476.0
aF556.0
aF551.0
aF556.0
aF-467.0
aF555.0
aF-450.0
aF-476.0
aF-451.0
aF548.0
aF543.0
aF556.0
aF556.0
aF555.0
aF555.0
aF557.0
aF-463.0
aF-463.0
aF556.0
aF-476.0
aF-467.0
aF-463.0
aF557.0
aF556.0
aF-463.0
aF556.0
aF556.0
aF554.0
aF557.0
aF-475.0
aF556.0
aF-449.0
aF-463.0
aF-463.0
aF557.0
aF-450.0
aF556.0
aF556.0
aF557.0
aF557.0
aF-463.0
aF-475.0
aF556.0
aF-458.0
aF556.0
aF-475.0
aF-463.0
aF-461.0
aF-471.0
aF550.0
aF-461.0
aF-463.0
aF538.0
aF556.0
aF530.0
aF544.0
aF-476.0
aF-481.0
aF-456.0
aF-463.0
aF-480.0
aF-475.0
aF546.0
aF528.0
aF-459.0
aF-472.0
aF518.0
aF-504.0
aF530.0
aF554.0
aF-541.0
aF-513.0
aF-463.0
aF-483.0
aF551.0
aF-518.0
aF-463.0
aF554.0
aF553.0
aF551.0
aF546.0
aF-462.0
aF-463.0
aF-450.0
aF554.0
aF554.0
aF555.0
aF546.0
aF-476.0
aF552.0
aF557.0
aF556.0
aF555.0
aF-463.0
aF555.0
aF-450.0
aF-463.0
aF-449.0
aF-460.0
aF551.0
aF-476.0
aF-449.0
aF-479.0
aF-455.0
aF-469.0
aF-476.0
aF-452.0
aF555.0
aF-476.0
aF-460.0
aF555.0
aF-459.0
aF557.0
aF543.0
aF551.0
aF-476.0
aF555.0
aF-465.0
aF-478.0
aF-452.0
aF-469.0
aF-475.0
aF-449.0
aF-476.0
aF-449.0
aF555.0
aF-449.0
aF-475.0
aF-463.0
aF-449.0
aF-469.0
aF557.0
aF-463.0
aF-474.0
aF557.0
aF554.0
aF-457.0
aF-469.0
aF-475.0
aF-463.0
aF-475.0
aF-463.0
aF-449.0
aF557.0
aF-463.0
aF-475.0
aF-476.0
aF-449.0
aF-449.0
aF-467.0
aF-463.0
aF-475.0
aF556.0
aF-463.0
aF557.0
aF-475.0
aF-476.0
aF-449.0
aF557.0
aF557.0
aF-449.0
aF557.0
aF557.0
aF554.0
aF556.0
aF557.0
aF556.0
aF557.0
aF-475.0
aF-449.0
aF-475.0
aF-475.0
aF557.0
aF-476.0
aF556.0
aF555.0
aF-450.0
aF-450.0
aF-449.0
aF556.0
aF557.0
aF556.0
aF-463.0
aF-453.0
aF-450.0
aF555.0
aF551.0
aF-454.0
aF557.0
aF555.0
aF-449.0
aF557.0
aF553.0
aF556.0
aF557.0
aF-449.0
aF557.0
aF-475.0
aF556.0
aF-476.0
aF-451.0
aF555.0
aF-475.0
aF-476.0
aF555.0
aF557.0
aF-450.0
aF-475.0
aF-463.0
aF-449.0
aF555.0
aF553.0
aF557.0
aF-475.0
aF557.0
aF-470.0
aF-449.0
aF557.0
aF-451.0
aF555.0
aF-473.0
aF-476.0
aF557.0
aF549.0
aF-453.0
aF-451.0
aF-468.0
aF555.0
aF-475.0
aF555.0
aF-476.0
aF553.0
aF557.0
aF-475.0
aF-476.0
aF561.0
aF557.0
aF557.0
aF557.0
aF-463.0
aF557.0
aF-449.0
aF557.0
aF557.0
aF-463.0
aF-465.0
aF-463.0
aF-477.0
aF557.0
aF557.0
aF-463.0
aF557.0
aF-477.0
aF-449.0
aF-449.0
aF556.0
aF-463.0
aF555.0
aF-463.0
aF557.0
aF-449.0
aF555.0
aF-452.0
aF-470.0
aF-449.0
aF-449.0
aF-463.0
aF-449.0
aF-449.0
aF555.0
aF-450.0
aF-449.0
aF-469.0
aF557.0
aF-476.0
aF-449.0
aF-453.0
aF-467.0
aF-449.0
aF-463.0
aF555.0
aF-464.0
aF-475.0
aF557.0
aF551.0
aF557.0
aF-449.0
aF557.0
aF-450.0
aF557.0
aF557.0
aF557.0
aF-463.0
aF-464.0
aF-475.0
aF-450.0
aF553.0
aF-463.0
aF-479.0
aF557.0
aF-449.0
aF555.0
aF-451.0
aF556.0
aF557.0
aF-449.0
aF557.0
aF-463.0
aF557.0
aF-463.0
aF557.0
aF-473.0
aF-463.0
aF-450.0
aF-449.0
aF-463.0
aF-449.0
aF-463.0
aF557.0
aF-473.0
aF554.0
aF553.0
aF-463.0
aF-451.0
aF557.0
aF-449.0
aF-463.0
aF557.0
aF-475.0
aF559.0
aF-473.0
aF-465.0
aF557.0
aF-449.0
aF557.0
aF-463.0
aF-463.0
aF-449.0
aF557.0
aF-449.0
aF-449.0
aF557.0
aF-451.0
aF556.0
aF557.0
aF-463.0
aF556.0
aF-449.0
aF-452.0
aF-455.0
aF556.0
aF-450.0
aF-463.0
aF-449.0
aF-467.0
aF-453.0
aF553.0
aF-455.0
aF-451.0
aF-463.0
aF557.0
aF-453.0
aF-479.0
aF543.0
aF-4929.0
aF555.0
aF-475.0
aF-4929.0
aF551.0
aF555.0
aF555.0
aF550.0
aF-451.0
aF546.0
aF556.0
aF556.0
aF-449.0
aF-451.0
aF557.0
aF-463.0
aF557.0
aF-463.0
aF556.0
aF550.0
aF555.0
aF-450.0
aF-475.0
aF557.0
aF-463.0
aF555.0
aF557.0
aF557.0
aF557.0
aF557.0
aF556.0
aF549.0
aF-475.0
aF557.0
aF-475.0
aF-451.0
aF555.0
aF-473.0
aF557.0
aF-449.0
aF557.0
aF557.0
aF557.0
aF-449.0
aF553.0
aF-464.0
aF-451.0
aF556.0
aF557.0
aF557.0
aF557.0
aF557.0
aF555.0
aF555.0
aF-463.0
aF557.0
aF557.0
aF556.0
aF557.0
aF-463.0
aF557.0
aF556.0
aF-475.0
aF-463.0
aF557.0
aF-475.0
aF-476.0
aF-449.0
aF-463.0
aF-458.0
aF557.0
aF-451.0
aF552.0
aF556.0
aF557.0
aF556.0
aF556.0
aF-449.0
aF541.0
aF-463.0
aF-463.0
aF-453.0
aF-463.0
aF-451.0
aF-463.0
aF-463.0
aF-465.0
aF-450.0
aF-465.0
aF-463.0
aF-463.0
aF-480.0
aF-463.0
aF-449.0
aF-487.0
aF-463.0
aF553.0
aF-483.0
aF-474.0
aF-463.0
aF536.0
aF-455.0
aF-452.0
aF557.0
aF-483.0
aF-449.0
aF557.0
aF555.0
aF554.0
aF-449.0
aF556.0
aF-463.0
aF557.0
aF557.0
aF-475.0
aF557.0
aF-463.0
aF-476.0
aF554.0
aF-475.0
aF557.0
aF555.0
aF-450.0
aF557.0
aF-449.0
aF-449.0
aF-476.0
aF556.0
aF-476.0
aF-467.0
aF-475.0
aF-463.0
aF-475.0
aF557.0
aF-465.0
aF552.0
aF553.0
aF557.0
aF550.0
aF-463.0
aF-465.0
aF556.0
aF-465.0
aF-461.0
aF-463.0
aF-463.0
aF-453.0
aF-463.0
aF557.0
aF-466.0
aF557.0
aF-483.0
aF524.0
aF-463.0
aF-473.0
aF-464.0
aF556.0
aF-463.0
aF556.0
aF556.0
aF-493.0
aF554.0
aF550.0
aF554.0
aF556.0
aF548.0
aF548.0
aF-453.0
aF557.0
aF550.0
aF557.0
aF-463.0
aF-463.0
aF557.0
aF-463.0
aF-449.0
aF554.0
aF-449.0
aF554.0
aF-463.0
aF-449.0
aF-463.0
aF556.0
aF554.0
aF-463.0
aF531.0
aF-463.0
aF557.0
aF550.0
aF-477.0
aF-449.0
aF-463.0
aF-450.0
aF-464.0
aF557.0
aF557.0
aF-475.0
aF-449.0
aF552.0
aF557.0
aF-463.0
aF533.0
aF-449.0
aF-449.0
aF-475.0
aF557.0
aF-463.0
aF-469.0
aF-471.0
aF-476.0
aF557.0
aF557.0
aF-476.0
aF-463.0
aF-459.0
aF-452.0
aF-451.0
aF-475.0
aF-475.0
aF-468.0
aF557.0
aF555.0
aF557.0
aF557.0
aF-464.0
aF-449.0
aF-463.0
aF-449.0
aF-476.0
aF557.0
aF-466.0
aF511.0
aF-463.0
aF557.0
aF-464.0
aF-475.0
aF-450.0
aF555.0
aF-463.0
aF-467.0
aF-465.0
aF-465.0
aF-449.0
aF557.0
aF557.0
aF552.0
aF-465.0
aF-463.0
aF555.0
aF-475.0
aF557.0
aF-463.0
aF557.0
aF556.0
aF557.0
aF-463.0
aF556.0
aF-475.0
aF557.0
aF-465.0
aF553.0
aF557.0
aF557.0
aF-463.0
aF555.0
aF557.0
aF-466.0
aF-463.0
aF-449.0
aF557.0
aF553.0
aF556.0
aF555.0
aF-465.0
aF557.0
aF-463.0
aF-449.0
aF-449.0
aF-449.0
aF-450.0
aF-463.0
aF-449.0
aF-449.0
aF-449.0
aF554.0
aF-463.0
aF-449.0
aF-452.0
aF-463.0
aF550.0
aF-464.0
aF557.0
aF-463.0
aF-449.0
aF557.0
aF554.0
aF-475.0
aF556.0
aF556.0
aF-475.0
aF-463.0
aF-464.0
aF557.0
aF556.0
aF552.0
aF-475.0
aF-474.0
aF557.0
aF-464.0
aF557.0
aF-464.0
aF-449.0
aF552.0
aF553.0
aF-463.0
aF-452.0
aF557.0
aF-463.0
aF-463.0
aF-451.0
aF-463.0
aF-449.0
aF556.0
aF557.0
aF-452.0
aF-449.0
aF-450.0
aF557.0
aF557.0
aF-463.0
aF544.0
aF554.0
aF555.0
aF-449.0
aF557.0
aF-467.0
aF550.0
aF554.0
aF555.0
aF-463.0
aF555.0
aF557.0
aF-463.0
aF-449.0
aF-449.0
aF554.0
aF556.0
aF557.0
aF-475.0
aF-476.0
aF-475.0
aF557.0
aF-464.0
aF-463.0
aF-475.0
aF532.0
aF556.0
aF-449.0
aF554.0
aF555.0
aF-463.0
aF-450.0
aF553.0
aF556.0
aF557.0
aF553.0
aF556.0
aF-463.0
aF-463.0
aF542.0
aF-463.0
aF544.0
aF-463.0
aF554.0
aF-475.0
aF552.0
aF557.0
aF557.0
aF557.0
aF-465.0
aF549.0
aF-465.0
aF546.0
aF-475.0
aF-456.0
aF546.0
aF555.0
aF-483.0
aF556.0
aF-469.0
aF-451.0
aF551.0
aF549.0
aF546.0
aF554.0
aF-482.0
aF552.0
aF557.0
aF-463.0
aF-475.0
aF537.0
aF557.0
aF547.0
aF553.0
aF552.0
aF520.0
aF557.0
aF553.0
aF554.0
aF-449.0
aF548.0
aF557.0
aF-456.0
aF554.0
aF546.0
aF550.0
aF-463.0
aF553.0
aF-463.0
aF556.0
aF-455.0
aF-463.0
aF-449.0
aF557.0
aF547.0
aF556.0
aF-475.0
aF-475.0
aF-463.0
aF555.0
aF-449.0
aF-467.0
aF551.0
aF-475.0
aF-463.0
aF-463.0
aF557.0
aF-479.0
aF557.0
aF557.0
aF-463.0
aF-463.0
aF553.0
aF-453.0
aF-449.0
aF552.0
aF557.0
aF-450.0
aF-464.0
aF-463.0
aF556.0
aF-475.0
aF-475.0
aF-449.0
aF-449.0
aF-485.0
aF-475.0
aF-475.0
aF557.0
aF-475.0
aF-463.0
aF-464.0
aF-449.0
aF-475.0
aF-475.0
aF557.0
aF-475.0
aF557.0
aF-473.0
aF-455.0
aF550.0
aF555.0
aF557.0
aF550.0
aF-475.0
aF554.0
aF555.0
aF556.0
aF-465.0
aF550.0
aF-450.0
aF-463.0
aF-449.0
aF549.0
aF-449.0
aF554.0
aF557.0
aF-449.0
aF539.0
aF-476.0
aF555.0
aF556.0
aF554.0
aF550.0
aF547.0
aF556.0
aF-466.0
aF-475.0
aF-451.0
aF-483.0
aF-474.0
aF-463.0
aF-472.0
aF-493.0
aF-463.0
aF-475.0
aF-484.0
aF518.0
aF-1449.0
aF-483.0
aF-518.0
aF-730.0
aF-955.0
aF-485.0
aF499.0
aF-572.0
aF-513.0
aF-483.0
aF-475.0
aF-559.0
aF-497.0
aF-517.0
aF523.0
aF-635.0
aF-470.0
aF-565.0
aF-507.0
aF-502.0
aF-493.0
aF-490.0
aF-463.0
aF-463.0
aF388.0
aF-483.0
aF-461.0
aF-457.0
aF-463.0
aF526.0
aF-497.0
aF-483.0
aF-493.0
aF-486.0
aF-483.0
aF-499.0
aF-493.0
aF548.0
aF-484.0
aF-471.0
aF547.0
aF-463.0
aF552.0
aF554.0
aF527.0
aF-499.0
aF456.0
aF-463.0
aF556.0
aF-475.0
aF-463.0
aF-475.0
aF556.0
aF557.0
aF-449.0
aF-463.0
aF-451.0
aF555.0
aF554.0
aF-475.0
aF557.0
aF-463.0
aF-463.0
aF544.0
aF-463.0
aF-463.0
aF546.0
aF-464.0
aF-475.0
aF553.0
aF555.0
aF557.0
aF-463.0
aF555.0
aF-465.0
aF-475.0
aF555.0
aF553.0
aF-476.0
aF556.0
aF557.0
aF554.0
aF-463.0
aF556.0
aF554.0
aF555.0
aF556.0
aF-463.0
aF553.0
aF-467.0
aF557.0
aF-463.0
aF-475.0
aF-453.0
aF-459.0
aF555.0
aF-453.0
aF-475.0
aF554.0
aF-463.0
aF-463.0
aF-449.0
aF554.0
aF-459.0
aF551.0
aF-465.0
aF554.0
aF-475.0
aF556.0
aF-467.0
aF-463.0
aF556.0
aF-463.0
aF545.0
aF545.0
aF-463.0
aF545.0
aF547.0
aF-463.0
aF-463.0
aF-463.0
aF555.0
aF556.0
aF-476.0
aF-452.0
aF551.0
aF545.0
aF-463.0
aF-463.0
aF-474.0
aF-463.0
aF556.0
aF-462.0
aF-475.0
aF-464.0
aF555.0
aF556.0
aF-463.0
aF554.0
aF555.0
aF550.0
aF-463.0
aF551.0
aF557.0
aF555.0
aF557.0
aF-467.0
aF552.0
aF-458.0
aF-468.0
aF-463.0
aF552.0
aF-475.0
aF-464.0
aF555.0
aF-465.0
aF-463.0
aF555.0
aF553.0
aF-467.0
aF555.0
aF-475.0
aF553.0
aF-475.0
aF-471.0
aF-476.0
aF557.0
aF548.0
aF-478.0
aF-463.0
aF554.0
aF-471.0
aF555.0
aF-467.0
aF550.0
aF551.0
aF-463.0
aF552.0
aF-475.0
aF-489.0
aF551.0
aF554.0
aF-493.0
aF-461.0
aF-454.0
aF553.0
aF-461.0
aF556.0
aF-477.0
aF-487.0
aF556.0
aF-465.0
aF556.0
aF-463.0
aF-475.0
aF-463.0
aF556.0
aF541.0
aF552.0
aF-450.0
aF556.0
aF557.0
aF556.0
aF556.0
aF-463.0
aF556.0
aF-463.0
aF-471.0
aF-463.0
aF554.0
aF556.0
aF549.0
aF-463.0
aF-458.0
aF538.0
aF-462.0
aF-475.0
aF-467.0
aF556.0
aF-475.0
aF555.0
aF554.0
aF-477.0
aF-463.0
aF-476.0
aF555.0
aF-485.0
aF-467.0
aF555.0
aF-475.0
aF-465.0
aF-464.0
aF-455.0
aF-465.0
aF557.0
aF550.0
aF-458.0
aF-537.0
aF544.0
aF-465.0
aF-475.0
aF556.0
aF-450.0
aF554.0
aF557.0
aF554.0
aF-473.0
aF554.0
aF557.0
aF553.0
aF-473.0
aF556.0
aF557.0
aF-450.0
aF-449.0
aF553.0
aF556.0
aF-450.0
aF-449.0
aF-469.0
aF-477.0
aF556.0
aF554.0
aF551.0
aF-449.0
aF-467.0
aF553.0
aF-449.0
aF-451.0
aF551.0
aF-451.0
aF-450.0
aF554.0
aF-471.0
aF-488.0
aF-454.0
aF-493.0
aF-465.0
aF-449.0
aF549.0
aF-465.0
aF555.0
aF-503.0
aF-479.0
aF-478.0
aF-477.0
aF-456.0
aF551.0
aF-483.0
aF-458.0
aF-453.0
aF-469.0
aF-505.0
aF-465.0
aF557.0
aF555.0
aF557.0
aF545.0
aF-449.0
aF-477.0
aF-463.0
aF-463.0
aF554.0
aF552.0
aF-459.0
aF-450.0
aF554.0
aF554.0
aF-472.0
aF-463.0
aF-470.0
aF551.0
aF-449.0
aF552.0
aF-462.0
aF-472.0
aF-463.0
aF-483.0
aF-475.0
aF552.0
aF543.0
aF-485.0
aF-483.0
aF554.0
aF-473.0
aF-485.0
aF542.0
aF-463.0
aF-483.0
aF521.0
aF539.0
aF-463.0
aF552.0
aF547.0
aF538.0
aF509.0
aF552.0
aF554.0
aF531.0
aF-463.0
aF549.0
aF-453.0
aF-463.0
aF-487.0
aF552.0
aF-463.0
aF548.0
aF-455.0
aF550.0
aF-463.0
aF-451.0
aF-461.0
aF-462.0
aF-451.0
aF546.0
aF555.0
aF550.0
aF548.0
aF-452.0
aF541.0
aF552.0
aF552.0
aF555.0
aF552.0
aF-476.0
aF551.0
aF550.0
aF-452.0
aF550.0
aF-463.0
aF-475.0
aF554.0
aF-477.0
aF556.0
aF556.0
aF-463.0
aF-475.0
aF-450.0
aF-475.0
aF-475.0
aF-475.0
aF-463.0
aF552.0
aF-454.0
aF-467.0
aF557.0
aF-463.0
aF-471.0
aF557.0
aF555.0
aF556.0
aF554.0
aF556.0
aF557.0
aF-462.0
aF555.0
aF-465.0
aF550.0
aF549.0
aF-460.0
aF546.0
aF-449.0
aF556.0
aF-451.0
aF556.0
aF-450.0
aF-454.0
aF556.0
aF556.0
aF-454.0
aF555.0
aF556.0
aF556.0
aF-463.0
aF557.0
aF556.0
aF556.0
aF556.0
aF-463.0
aF556.0
aF543.0
aF-463.0
aF-463.0
aF551.0
aF-449.0
aF-475.0
aF-475.0
aF557.0
aF-449.0
aF556.0
aF-463.0
aF-463.0
aF-464.0
aF-449.0
aF556.0
aF-475.0
aF-463.0
aF557.0
aF-466.0
aF-457.0
aF552.0
aF-456.0
aF-449.0
aF556.0
aF554.0
aF-463.0
aF-463.0
aF-454.0
aF-450.0
aF557.0
aF554.0
aF-475.0
aF-449.0
aF556.0
aF556.0
aF-460.0
aF-454.0
aF557.0
aF556.0
aF-473.0
aF556.0
aF-463.0
aF-456.0
aF-499.0
aF-474.0
aF-463.0
aF-461.0
aF555.0
aF557.0
aF556.0
aF544.0
aF556.0
aF556.0
aF-469.0
aF553.0
aF548.0
aF556.0
aF-451.0
aF-463.0
aF-464.0
aF-449.0
aF554.0
aF557.0
aF554.0
aF-463.0
aF555.0
aF557.0
aF555.0
aF-463.0
aF556.0
aF-449.0
aF557.0
aF553.0
aF556.0
aF556.0
aF-457.0
aF-464.0
aF556.0
aF-463.0
aF556.0
aF554.0
aF555.0
aF-475.0
aF556.0
aF556.0
aF-455.0
aF555.0
aF552.0
aF556.0
aF557.0
aF-476.0
aF-449.0
aF556.0
aF-465.0
aF540.0
aF546.0
aF-476.0
aF-465.0
aF-475.0
aF552.0
aF-465.0
aF-478.0
aF-467.0
aF-471.0
aF-477.0
aF-482.0
aF546.0
aF-461.0
aF-480.0
aF-482.0
aF-483.0
aF-506.0
aF-466.0
aF-490.0
aF555.0
aF-477.0
aF-484.0
aF549.0
aF-461.0
aF-491.0
aF-480.0
aF-469.0
aF-478.0
aF-465.0
aF-471.0
aF-507.0
aF-449.0
aF-469.0
aF-467.0
aF-451.0
aF-476.0
aF538.0
aF-491.0
aF551.0
aF-453.0
aF-461.0
aF553.0
aF-480.0
aF-468.0
aF-478.0
aF-468.0
aF550.0
aF-476.0
aF-472.0
aF-463.0
aF548.0
aF-468.0
aF-476.0
aF551.0
aF-476.0
aF554.0
aF553.0
aF549.0
aF-463.0
aF-469.0
aF554.0
aF-475.0
aF-465.0
aF556.0
aF-463.0
aF554.0
aF-463.0
aF554.0
aF555.0
aF-449.0
aF552.0
aF557.0
aF556.0
aF-470.0
aF556.0
aF-463.0
aF-465.0
aF555.0
aF-449.0
aF-463.0
aF-475.0
aF-449.0
aF555.0
aF-449.0
aF557.0
aF554.0
aF550.0
aF552.0
aF554.0
aF-467.0
aF-480.0
aF-463.0
aF556.0
aF554.0
aF-463.0
aF-472.0
aF554.0
aF554.0
aF551.0
aF-457.0
aF547.0
aF-466.0
aF544.0
aF-465.0
aF-463.0
aF-449.0
aF-475.0
aF554.0
aF-463.0
aF555.0
aF-451.0
aF-463.0
aF556.0
aF550.0
aF549.0
aF-463.0
aF556.0
aF553.0
aF-463.0
aF556.0
aF-463.0
aF547.0
aF553.0
aF556.0
aF543.0
aF-463.0
aF547.0
aF548.0
aF554.0
aF546.0
aF-467.0
aF-449.0
aF556.0
aF-465.0
aF554.0
aF-475.0
aF-453.0
aF-463.0
aF555.0
aF554.0
aF-487.0
aF-463.0
aF553.0
aF549.0
aF552.0
aF545.0
aF-465.0
aF539.0
aF557.0
aF555.0
aF-449.0
aF549.0
aF-463.0
aF-451.0
aF548.0
aF555.0
aF545.0
aF553.0
aF554.0
aF546.0
aF538.0
aF556.0
aF556.0
aF547.0
aF-463.0
aF556.0
aF-463.0
aF-475.0
aF-465.0
aF-475.0
aF549.0
aF557.0
aF-463.0
aF-467.0
aF548.0
aF-467.0
aF550.0
aF556.0
aF554.0
aF555.0
aF-476.0
aF-467.0
aF-463.0
aF-476.0
aF-459.0
aF556.0
aF554.0
aF551.0
aF-449.0
aF550.0
aF555.0
aF557.0
aF-453.0
aF-476.0
aF551.0
aF556.0
aF556.0
aF-463.0
aF556.0
aF553.0
aF-476.0
aF556.0
aF553.0
aF557.0
aF545.0
aF552.0
aF551.0
aF554.0
aF545.0
aF548.0
aF-467.0
aF529.0
aF547.0
aF556.0
aF-463.0
aF557.0
aF553.0
aF-463.0
aF556.0
aF555.0
aF556.0
aF556.0
aF556.0
aF-449.0
aF556.0
aF-449.0
aF549.0
aF-451.0
aF-476.0
aF-467.0
aF-463.0
aF-463.0
aF-465.0
aF-465.0
aF-453.0
aF554.0
aF-475.0
aF551.0
aF-469.0
aF-449.0
aF-463.0
aF-480.0
aF557.0
aF550.0
aF-463.0
aF555.0
aF554.0
aF556.0
aF-449.0
aF557.0
aF556.0
aF-475.0
aF-451.0
aF-457.0
aF553.0
aF-476.0
aF-476.0
aF556.0
aF551.0
aF554.0
aF-476.0
aF-469.0
aF556.0
aF-475.0
aF551.0
aF557.0
aF-475.0
aF554.0
aF-463.0
aF550.0
aF-476.0
aF-463.0
aF554.0
aF557.0
aF-475.0
aF557.0
aF-451.0
aF-449.0
aF557.0
aF556.0
aF556.0
aF553.0
aF-469.0
aF-475.0
aF556.0
aF552.0
aF551.0
aF-463.0
aF557.0
aF557.0
aF556.0
aF552.0
aF557.0
aF-463.0
aF-463.0
aF-449.0
aF551.0
aF-465.0
aF553.0
aF553.0
aF-476.0
aF549.0
aF556.0
aF-476.0
aF553.0
aF-463.0
aF-470.0
aF-451.0
aF554.0
aF-475.0
aF555.0
aF-455.0
aF547.0
aF-463.0
aF556.0
aF-476.0
aF-463.0
aF554.0
aF557.0
aF556.0
aF550.0
aF-476.0
aF555.0
aF557.0
aF552.0
aF554.0
aF551.0
aF-476.0
aF-473.0
aF-451.0
aF-463.0
aF-463.0
aF-463.0
aF-451.0
aF-449.0
aF552.0
aF-475.0
aF556.0
aF556.0
aF556.0
aF552.0
aF557.0
aF556.0
aF553.0
aF-449.0
aF-455.0
aF-463.0
aF550.0
aF556.0
aF551.0
aF556.0
aF550.0
aF554.0
aF-463.0
aF556.0
aF552.0
aF-455.0
aF549.0
aF-449.0
aF-465.0
aF-463.0
aF-464.0
aF550.0
aF-476.0
aF-463.0
aF543.0
aF-463.0
aF-463.0
aF-4929.0
aF-463.0
aF546.0
aF554.0
aF511.0
aF521.0
aF554.0
aF-475.0
aF-463.0
aF547.0
aF-463.0
aF528.0
aF556.0
aF537.0
aF556.0
aF-463.0
aF557.0
aF-463.0
aF556.0
aF546.0
aF-463.0
aF-475.0
aF-463.0
aF554.0
aF552.0
aF-463.0
aF-493.0
aF546.0
aF556.0
aF555.0
aF556.0
aF556.0
aF550.0
aF552.0
aF-455.0
aF-463.0
aF-449.0
aF556.0
aF-463.0
aF556.0
aF554.0
aF-463.0
aF-475.0
aF556.0
aF-463.0
aF-463.0
aF556.0
aF553.0
aF556.0
aF-463.0
aF-463.0
aF-463.0
aF554.0
aF-463.0
aF-463.0
aF556.0
aF-463.0
aF552.0
aF555.0
aF-463.0
aF-463.0
aF556.0
aF556.0
aF556.0
aF556.0
aF-463.0
aF556.0
aF-449.0
aF557.0
aF-463.0
aF-475.0
aF556.0
aF-463.0
aF-463.0
aF557.0
aF554.0
aF556.0
aF-475.0
aF556.0
aF554.0
aF556.0
aF556.0
aF-463.0
aF552.0
aF-463.0
aF-451.0
aF554.0
aF-449.0
aF-463.0
aF556.0
aF-449.0
aF-449.0
aF-466.0
aF-463.0
aF555.0
aF-463.0
aF556.0
aF554.0
aF-463.0
aF557.0
aF554.0
aF552.0
aF556.0
aF553.0
aF552.0
aF-468.0
aF-462.0
aF-463.0
aF552.0
aF548.0
aF554.0
aF-463.0
aF553.0
aF552.0
aF554.0
aF554.0
aF556.0
aF555.0
aF550.0
aF554.0
aF-463.0
aF-463.0
aF550.0
aF556.0
aF-463.0
aF549.0
aF536.0
aF554.0
aF-467.0
aF556.0
aF-463.0
aF-463.0
aF556.0
aF552.0
aF-463.0
aF546.0
aF552.0
aF-475.0
aF556.0
aF555.0
aF536.0
aF548.0
aF-463.0
aF557.0
aF532.0
aF549.0
aF-463.0
aF541.0
aF554.0
aF555.0
aF546.0
aF548.0
aF-463.0
aF554.0
aF-463.0
aF-467.0
aF556.0
aF548.0
aF546.0
aF-455.0
aF554.0
aF551.0
aF557.0
aF557.0
aF554.0
aF552.0
aF-476.0
aF-476.0
aF556.0
aF-463.0
aF-465.0
aF557.0
aF550.0
aF-475.0
aF556.0
aF-476.0
aF556.0
aF557.0
aF-452.0
aF-455.0
aF-449.0
aF-463.0
aF556.0
aF-476.0
aF-476.0
aF552.0
aF-467.0
aF553.0
aF-453.0
aF-475.0
aF556.0
aF-453.0
aF556.0
aF-463.0
aF-465.0
aF554.0
aF556.0
aF556.0
aF554.0
aF-451.0
aF557.0
aF-463.0
aF557.0
aF-463.0
aF-465.0
aF-463.0
aF554.0
aF-463.0
aF557.0
aF556.0
aF548.0
aF-463.0
aF-463.0
aF-468.0
aF-463.0
aF-475.0
aF-449.0
aF554.0
aF557.0
aF-476.0
aF-463.0
aF554.0
aF556.0
aF556.0
aF556.0
aF544.0
aF-476.0
aF-463.0
aF556.0
aF554.0
aF-463.0
aF-476.0
aF556.0
aF550.0
aF-451.0
aF-463.0
aF-476.0
aF556.0
aF-451.0
aF556.0
aF-463.0
aF556.0
aF-465.0
aF-476.0
aF556.0
aF556.0
aF556.0
aF-475.0
aF-451.0
aF554.0
aF-475.0
aF556.0
aF-451.0
aF-467.0
aF-463.0
aF556.0
aF-463.0
aF554.0
aF-475.0
aF556.0
aF-449.0
aF554.0
aF557.0
aF-476.0
aF-461.0
aF557.0
aF552.0
aF552.0
aF557.0
aF554.0
aF557.0
aF556.0
aF556.0
aF556.0
aF552.0
aF-455.0
aF-463.0
aF554.0
aF-475.0
aF557.0
aF557.0
aF-463.0
aF553.0
aF-449.0
aF-476.0
aF557.0
aF557.0
aF554.0
aF556.0
aF557.0
aF-475.0
aF557.0
aF554.0
aF-449.0
aF-465.0
aF550.0
aF556.0
aF556.0
aF556.0
aF556.0
aF-469.0
aF557.0
aF546.0
aF557.0
aF-449.0
aF557.0
aF557.0
aF-463.0
aF-463.0
aF540.0
aF-449.0
aF-475.0
aF555.0
aF-463.0
aF557.0
aF555.0
aF-465.0
aF557.0
aF-451.0
aF-449.0
aF-463.0
aF-452.0
aF-463.0
aF-452.0
aF-455.0
aF557.0
aF-463.0
aF-477.0
aF-460.0
aF-463.0
aF-475.0
aF-465.0
aF548.0
aF-477.0
aF-463.0
aF555.0
aF557.0
aF553.0
aF-449.0
aF557.0
aF-450.0
aF-463.0
aF557.0
aF-465.0
aF557.0
aF557.0
aF-463.0
aF-465.0
aF-463.0
aF557.0
aF557.0
aF-475.0
aF-463.0
aF-451.0
aF-475.0
aF557.0
aF-463.0
aF-471.0
aF556.0
aF-463.0
aF-449.0
aF557.0
aF557.0
aF557.0
aF-463.0
aF-475.0
aF553.0
aF-463.0
aF-458.0
aF-465.0
aF-449.0
aF556.0
aF556.0
aF-475.0
aF-463.0
aF557.0
aF-463.0
aF-463.0
aF556.0
aF-463.0
aF556.0
aF557.0
aF-463.0
aF554.0
aF555.0
aF550.0
aF-475.0
aF556.0
aF557.0
aF551.0
aF556.0
aF539.0
aF556.0
aF556.0
aF-463.0
aF-449.0
aF-463.0
aF-463.0
aF548.0
aF551.0
aF-463.0
aF555.0
aF556.0
aF-463.0
aF549.0
aF-449.0
aF556.0
aF550.0
aF-455.0
aF556.0
aF-463.0
aF541.0
aF556.0
aF-475.0
aF546.0
aF-475.0
aF552.0
aF553.0
aF-475.0
aF-483.0
aF544.0
aF-463.0
aF557.0
aF-463.0
aF557.0
aF557.0
aF-463.0
aF-475.0
aF-463.0
aF556.0
aF554.0
aF-463.0
aF556.0
aF556.0
aF557.0
aF-476.0
aF-475.0
aF-463.0
aF556.0
aF553.0
aF556.0
aF556.0
aF556.0
aF-475.0
aF-463.0
aF554.0
aF556.0
aF556.0
aF556.0
aF554.0
aF550.0
aF-475.0
aF556.0
aF556.0
aF555.0
aF-475.0
aF-482.0
aF-475.0
aF-457.0
aF-463.0
aF556.0
aF-463.0
aF556.0
aF555.0
aF-463.0
aF-458.0
aF507.0
aF557.0
aF546.0
aF556.0
aF550.0
aF-475.0
aF-463.0
aF551.0
aF556.0
aF-453.0
aF554.0
aF557.0
aF-453.0
aF554.0
aF556.0
aF-463.0
aF557.0
aF554.0
aF556.0
aF-490.0
aF555.0
aF556.0
aF-463.0
aF-449.0
aF-727.0
aF556.0
aF556.0
aF553.0
aF-463.0
aF-463.0
aF-463.0
aF550.0
aF-463.0
aF542.0
aF554.0
aF-465.0
aF556.0
aF556.0
aF553.0
aF-463.0
aF557.0
aF556.0
aF556.0
aF555.0
aF-449.0
aF-463.0
aF-463.0
aF-475.0
aF-463.0
aF553.0
aF-475.0
aF-475.0
aF555.0
aF557.0
aF-451.0
aF557.0
aF555.0
aF-449.0
aF543.0
aF-449.0
aF-463.0
aF-449.0
aF556.0
aF-475.0
aF-463.0
aF556.0
aF-465.0
aF556.0
aF-455.0
aF-463.0
aF557.0
aF-463.0
aF557.0
aF557.0
aF-475.0
aF557.0
aF557.0
aF550.0
aF556.0
aF557.0
aF557.0
aF557.0
aF556.0
aF555.0
aF-463.0
aF557.0
aF-463.0
aF557.0
aF557.0
aF557.0
aF-476.0
aF-451.0
aF-449.0
aF-468.0
aF551.0
aF557.0
aF557.0
aF557.0
aF557.0
aF-465.0
aF-463.0
aF557.0
aF556.0
aF-473.0
aF555.0
aF-475.0
aF-451.0
aF555.0
aF-463.0
aF-465.0
aF-463.0
aF-465.0
aF553.0
aF557.0
aF-463.0
aF557.0
aF-463.0
aF-463.0
aF-449.0
aF557.0
aF-449.0
aF-463.0
aF-449.0
aF557.0
aF-449.0
aF-463.0
aF-449.0
aF557.0
aF-463.0
aF-483.0
aF-449.0
aF-465.0
aF-463.0
aF-449.0
aF-451.0
aF-463.0
aF557.0
aF557.0
aF-475.0
aF557.0
aF557.0
aF557.0
aF557.0
aF557.0
aF-463.0
aF-454.0
aF557.0
aF-451.0
aF556.0
aF-463.0
aF555.0
aF-449.0
aF-475.0
aF557.0
aF-463.0
aF557.0
aF557.0
aF-466.0
aF-449.0
aF-463.0
aF-449.0
aF-463.0
aF-449.0
aF555.0
aF-449.0
aF-463.0
aF556.0
aF-453.0
aF-466.0
aF556.0
aF557.0
aF557.0
aF557.0
aF-449.0
aF556.0
aF-463.0
aF557.0
aF-451.0
aF-475.0
aF-451.0
aF557.0
aF-475.0
aF557.0
aF-463.0
aF556.0
aF556.0
aF557.0
aF557.0
aF-476.0
aF557.0
aF557.0
aF-449.0
aF-463.0
aF-473.0
aF-463.0
aF557.0
aF557.0
aF-449.0
aF-451.0
aF557.0
aF-449.0
aF557.0
aF-463.0
aF557.0
aF-475.0
aF557.0
aF557.0
aF-449.0
aF-449.0
aF556.0
aF-449.0
aF-463.0
aF557.0
aF557.0
aF557.0
aF554.0
aF-449.0
aF-449.0
aF-463.0
aF-463.0
aF-463.0
aF557.0
aF557.0
aF-475.0
aF557.0
aF-449.0
aF-463.0
aF-449.0
aF-469.0
aF557.0
aF557.0
aF557.0
aF-449.0
aF557.0
aF557.0
aF-449.0
aF-463.0
aF556.0
aF555.0
aF557.0
aF-451.0
aF-463.0
aF557.0
aF557.0
aF557.0
aF557.0
aF557.0
aF-483.0
aF-463.0
aF556.0
aF-461.0
aF557.0
aF556.0
aF557.0
aF-452.0
aF-453.0
aF-463.0
aF-463.0
aF-463.0
aF557.0
aF516.0
aF-451.0
aF-449.0
aF-466.0
aF-475.0
aF-455.0
aF-483.0
aF-462.0
aF-483.0
aF-475.0
aF-463.0
aF548.0
aF555.0
aF-465.0
aF555.0
aF551.0
aF-475.0
aF-455.0
aF557.0
aF-462.0
aF551.0
aF-459.0
aF553.0
aF-463.0
aF-483.0
aF-451.0
aF557.0
aF-485.0
aF-472.0
aF-475.0
aF-465.0
aF556.0
aF-463.0
aF-463.0
aF557.0
aF557.0
aF557.0
aF557.0
aF-472.0
aF-463.0
aF-463.0
aF556.0
aF556.0
aF-449.0
aF557.0
aF-453.0
aF557.0
aF557.0
aF556.0
aF-449.0
aF-449.0
aF557.0
aF-475.0
aF557.0
aF-451.0
aF557.0
aF-463.0
aF557.0
aF-463.0
aF557.0
aF557.0
aF-463.0
aF-451.0
aF555.0
aF-463.0
aF557.0
aF557.0
aF-449.0
aF-475.0
aF557.0
aF-459.0
aF555.0
aF-449.0
aF557.0
aF557.0
aF-463.0
aF557.0
aF557.0
aF-463.0
aF-449.0
aF-463.0
aF557.0
aF557.0
aF-475.0
aF-449.0
aF555.0
aF555.0
aF557.0
aF-463.0
aF-463.0
aF557.0
aF-451.0
aF555.0
aF556.0
aF-451.0
aF557.0
aF-457.0
aF-449.0
aF557.0
aF-449.0
aF557.0
aF555.0
aF557.0
aF557.0
aF-485.0
aF-463.0
aF557.0
aF557.0
aF-463.0
aF-493.0
aF-449.0
aF-475.0
aF-463.0
aF556.0
aF-451.0
aF556.0
aF-449.0
aF-451.0
aF-463.0
aF-463.0
aF-450.0
aF-449.0
aF-475.0
aF-463.0
aF-449.0
aF-475.0
aF557.0
aF-475.0
aF557.0
aF-463.0
aF-449.0
aF-449.0
aF557.0
aF-451.0
aF556.0
aF-463.0
aF557.0
aF557.0
aF557.0
aF557.0
aF554.0
aF-463.0
aF557.0
aF557.0
aF551.0
aF556.0
aF557.0
aF-449.0
aF554.0
aF556.0
aF-463.0
aF-463.0
aF545.0
aF-463.0
aF-475.0
aF-465.0
aF557.0
aF554.0
aF557.0
aF555.0
aF-457.0
aF-463.0
aF556.0
aF-4929.0
aF-449.0
aF553.0
aF547.0
aF-481.0
aF-464.0
aF554.0
aF556.0
aF-461.0
aF-463.0
aF555.0
aF-465.0
aF557.0
aF555.0
aF555.0
aF556.0
aF-471.0
aF556.0
aF555.0
aF554.0
aF555.0
aF-4929.0
aF552.0
aF556.0
aF532.0
aF539.0
aF556.0
aF557.0
aF557.0
aF-471.0
aF555.0
aF545.0
aF554.0
aF-458.0
aF553.0
aF557.0
aF-463.0
aF547.0
aF-476.0
aF-478.0
aF555.0
aF-465.0
aF-475.0
aF551.0
aF553.0
aF549.0
aF-463.0
aF-463.0
aF555.0
aF556.0
aF-4929.0
aF-463.0
aF548.0
aF556.0
aF554.0
aF-476.0
aF521.0
aF-475.0
aF544.0
aF556.0
aF-475.0
aF522.0
aF552.0
aF548.0
aF453.0
aF544.0
aF-4929.0
aF-477.0
aF-476.0
aF544.0
aF547.0
aF-476.0
aF-465.0
aF556.0
aF556.0
aF-476.0
aF-463.0
aF-4929.0
aF556.0
aF541.0
aF501.0
aF552.0
aF556.0
aF552.0
aF548.0
aF556.0
aF555.0
aF553.0
aF-467.0
aF547.0
aF554.0
aF546.0
aF-475.0
aF556.0
aF548.0
aF544.0
aF554.0
aF554.0
aF556.0
aF-463.0
aF556.0
aF544.0
aF549.0
aF551.0
aF-465.0
aF556.0
aF-457.0
aF556.0
aF545.0
aF-465.0
aF548.0
aF-463.0
aF-449.0
aF555.0
aF556.0
aF554.0
aF556.0
aF-463.0
aF-463.0
aF556.0
aF550.0
aF548.0
aF554.0
aF542.0
aF-463.0
aF542.0
aF544.0
aF-463.0
aF532.0
aF550.0
aF556.0
aF554.0
aF-465.0
aF-463.0
aF-463.0
aF554.0
aF-463.0
aF543.0
aF-465.0
aF553.0
aF556.0
aF-464.0
aF551.0
aF556.0
aF556.0
aF556.0
aF556.0
aF556.0
aF-463.0
aF553.0
aF-475.0
aF556.0
aF-463.0
aF556.0
aF557.0
aF549.0
aF556.0
aF540.0
aF556.0
aF553.0
aF552.0
aF556.0
aF556.0
aF-463.0
aF555.0
aF549.0
aF543.0
aF-463.0
aF541.0
aF556.0
aF553.0
aF556.0
aF544.0
aF553.0
aF556.0
aF556.0
aF554.0
aF549.0
aF556.0
aF551.0
aF552.0
aF-463.0
aF557.0
aF551.0
aF545.0
aF-469.0
aF556.0
aF556.0
aF-475.0
aF554.0
aF553.0
aF-463.0
aF551.0
aF557.0
aF554.0
aF-463.0
aF556.0
aF556.0
aF-465.0
aF556.0
aF556.0
aF-467.0
aF548.0
aF-453.0
aF-463.0
aF556.0
aF-463.0
aF556.0
aF551.0
aF556.0
aF553.0
aF-475.0
aF551.0
aF555.0
aF-463.0
aF550.0
aF548.0
aF544.0
aF557.0
aF-465.0
aF545.0
aF546.0
aF556.0
aF-463.0
aF-472.0
aF-465.0
aF-463.0
aF556.0
aF-463.0
aF553.0
aF554.0
aF556.0
aF556.0
aF-475.0
aF-463.0
aF556.0
aF-463.0
aF-475.0
aF-465.0
aF552.0
aF557.0
aF556.0
aF554.0
aF553.0
aF551.0
aF-465.0
aF553.0
aF551.0
aF-475.0
aF-465.0
aF551.0
aF550.0
aF548.0
aF551.0
aF546.0
aF551.0
aF556.0
aF556.0
aF-463.0
aF550.0
aF553.0
aF-465.0
aF-463.0
aF-466.0
aF-475.0
aF554.0
aF527.0
aF531.0
aF550.0
aF549.0
aF556.0
aF-463.0
aF-493.0
aF-463.0
aF550.0
aF556.0
aF-475.0
aF552.0
aF546.0
aF557.0
aF557.0
aF550.0
aF556.0
aF556.0
aF551.0
aF556.0
aF547.0
aF-475.0
aF556.0
aF552.0
aF-464.0
aF-463.0
aF556.0
aF545.0
aF-475.0
aF556.0
aF550.0
aF555.0
aF-463.0
aF543.0
aF-463.0
aF-475.0
aF549.0
aF556.0
aF556.0
aF556.0
aF556.0
aF547.0
aF556.0
aF553.0
aF547.0
aF-463.0
aF556.0
aF556.0
aF-463.0
aF-475.0
aF-463.0
aF552.0
aF-463.0
aF548.0
aF556.0
aF547.0
aF-463.0
aF-463.0
aF556.0
aF544.0
aF552.0
aF545.0
aF-455.0
aF556.0
aF-463.0
aF551.0
aF545.0
aF-463.0
aF546.0
aF-463.0
aF554.0
aF556.0
aF-463.0
aF-463.0
aF-463.0
aF556.0
aF545.0
aF550.0
aF556.0
aF554.0
aF-463.0
aF-463.0
aF556.0
aF556.0
aF556.0
aF551.0
aF-475.0
aF545.0
aF551.0
aF556.0
aF-453.0
aF545.0
aF554.0
aF-463.0
aF545.0
aF541.0
aF554.0
aF554.0
aF554.0
aF-463.0
aF553.0
aF545.0
aF554.0
aF555.0
aF-463.0
aF554.0
aF-463.0
aF-463.0
aF556.0
aF546.0
aF556.0
aF549.0
aF552.0
aF-475.0
aF-467.0
aF556.0
aF553.0
aF-475.0
aF548.0
aF555.0
aF557.0
aF556.0
aF536.0
aF-465.0
aF-476.0
aF556.0
aF551.0
aF-465.0
aF-475.0
aF556.0
aF556.0
aF548.0
aF544.0
aF550.0
aF549.0
aF-463.0
aF552.0
aF-465.0
aF556.0
aF556.0
aF556.0
aF556.0
aF556.0
aF-463.0
aF557.0
aF556.0
aF555.0
aF556.0
aF556.0
aF548.0
aF556.0
aF-463.0
aF548.0
aF542.0
aF-471.0
aF556.0
aF556.0
aF554.0
aF556.0
aF556.0
aF557.0
aF-475.0
aF545.0
aF-455.0
aF555.0
aF556.0
aF556.0
aF554.0
aF552.0
aF554.0
aF556.0
aF554.0
aF556.0
aF556.0
aF554.0
aF549.0
aF556.0
aF554.0
aF-475.0
aF554.0
aF556.0
aF556.0
aF-475.0
aF-463.0
aF549.0
aF557.0
aF557.0
aF553.0
aF-465.0
aF-465.0
aF556.0
aF556.0
aF553.0
aF-467.0
aF-463.0
aF-473.0
aF-491.0
aF-475.0
aF-475.0
aF555.0
aF-469.0
aF-471.0
aF-467.0
aF554.0
aF554.0
aF-465.0
aF553.0
aF555.0
aF-463.0
aF-463.0
aF553.0
aF-467.0
aF557.0
aF556.0
aF556.0
aF-475.0
aF-465.0
aF-463.0
aF554.0
aF-475.0
aF548.0
aF555.0
aF547.0
aF553.0
aF-463.0
aF547.0
aF-475.0
aF556.0
aF554.0
aF-476.0
aF556.0
aF554.0
aF551.0
aF555.0
aF556.0
aF-475.0
aF538.0
aF556.0
aF552.0
aF548.0
aF556.0
aF554.0
aF551.0
aF550.0
aF-463.0
aF551.0
aF556.0
aF-449.0
aF549.0
aF-475.0
aF539.0
aF-463.0
aF536.0
aF-454.0
aF556.0
aF557.0
aF557.0
aF547.0
aF-475.0
aF-469.0
aF-475.0
aF-475.0
aF556.0
aF551.0
aF-461.0
aF550.0
aF556.0
aF546.0
aF557.0
aF556.0
aF-463.0
aF-463.0
aF545.0
aF556.0
aF556.0
aF550.0
aF556.0
aF554.0
aF556.0
aF557.0
aF547.0
aF553.0
aF556.0
aF539.0
aF557.0
aF-463.0
aF548.0
aF-463.0
aF555.0
aF556.0
aF553.0
aF-450.0
aF556.0
aF-467.0
aF556.0
aF-475.0
aF556.0
aF552.0
aF557.0
aF556.0
aF-463.0
aF552.0
aF551.0
aF557.0
aF557.0
aF-475.0
aF555.0
aF556.0
aF556.0
aF551.0
aF548.0
aF554.0
aF554.0
aF556.0
aF554.0
aF556.0
aF-463.0
aF554.0
aF-463.0
aF-477.0
aF552.0
aF554.0
aF-463.0
aF541.0
aF545.0
aF555.0
aF555.0
aF547.0
aF-463.0
aF548.0
aF550.0
aF-465.0
aF557.0
aF556.0
aF-451.0
aF556.0
aF552.0
aF551.0
aF556.0
aF556.0
aF-465.0
aF-463.0
aF-463.0
aF550.0
aF556.0
aF554.0
aF-465.0
aF553.0
aF-463.0
aF-463.0
aF-463.0
aF556.0
aF556.0
aF556.0
aF550.0
aF556.0
aF-463.0
aF534.0
aF556.0
aF-463.0
aF553.0
aF-463.0
aF556.0
aF-463.0
aF-475.0
aF556.0
aF-475.0
aF556.0
aF-463.0
aF-463.0
aF-463.0
aF-463.0
aF554.0
aF547.0
aF556.0
aF556.0
aF550.0
aF-463.0
aF556.0
aF556.0
aF556.0
aF549.0
aF-475.0
aF550.0
aF-463.0
aF554.0
aF556.0
aF555.0
aF553.0
aF556.0
aF-463.0
aF556.0
aF556.0
aF-463.0
aF556.0
aF-463.0
aF539.0
aF-463.0
aF556.0
aF551.0
aF557.0
aF556.0
aF556.0
aF-453.0
aF-463.0
aF556.0
aF555.0
aF549.0
aF550.0
aF555.0
aF554.0
aF557.0
aF557.0
aF557.0
aF553.0
aF-449.0
aF557.0
aF-463.0
aF557.0
aF555.0
aF-475.0
aF557.0
aF555.0
aF-449.0
aF-463.0
aF-463.0
aF-475.0
aF-463.0
aF-463.0
aF557.0
aF-463.0
aF-449.0
aF-451.0
aF-463.0
aF-475.0
aF557.0
aF550.0
aF-463.0
aF-496.0
aF-463.0
aF-463.0
aF-449.0
aF548.0
aF555.0
aF553.0
aF-449.0
aF557.0
aF-450.0
aF557.0
aF-477.0
aF550.0
aF-464.0
aF-463.0
aF555.0
aF-475.0
aF557.0
aF-449.0
aF-463.0
aF554.0
aF-463.0
aF557.0
aF-451.0
aF-451.0
aF-451.0
aF551.0
aF557.0
aF553.0
aF-463.0
aF-463.0
aF556.0
aF-451.0
aF556.0
aF557.0
aF555.0
aF557.0
aF-449.0
aF-450.0
aF557.0
aF556.0
aF555.0
aF-449.0
aF-463.0
aF556.0
aF554.0
aF554.0
aF-475.0
aF554.0
aF557.0
aF-463.0
aF556.0
aF556.0
aF-463.0
aF551.0
aF-449.0
aF553.0
aF-455.0
aF-463.0
aF-463.0
aF-463.0
aF556.0
aF-463.0
aF547.0
aF-463.0
aF557.0
aF550.0
aF-475.0
aF550.0
aF556.0
aF556.0
aF556.0
aF556.0
aF556.0
aF555.0
aF550.0
aF556.0
aF-463.0
aF-463.0
aF-463.0
aF-475.0
aF-463.0
aF556.0
aF556.0
aF556.0
aF556.0
aF556.0
aF-463.0
aF-475.0
aF556.0
aF551.0
aF554.0
aF556.0
aF555.0
aF-463.0
aF-465.0
aF-463.0
aF553.0
aF549.0
aF556.0
aF556.0
aF555.0
aF-463.0
aF556.0
aF-463.0
aF-463.0
aF554.0
aF553.0
aF556.0
aF556.0
aF553.0
aF550.0
aF555.0
aF556.0
aF-463.0
aF546.0
aF-463.0
aF550.0
aF-463.0
aF557.0
aF556.0
aF-463.0
aF556.0
aF557.0
aF-475.0
aF556.0
aF549.0
aF555.0
aF-463.0
aF543.0
aF556.0
aF-463.0
aF556.0
aF549.0
aF556.0
aF556.0
aF551.0
aF556.0
aF556.0
aF556.0
aF556.0
aF-463.0
aF-463.0
aF-463.0
asS'actions'
p5
(lp6
I69
aI64
aI40
aI40
aI18
aI8
aI49
aI53
aI6
aI46
aI13
aI52
aI141
aI39
aI27
aI52
aI27
aI14
aI73
aI21
aI23
aI17
aI10
aI56
aI80
aI31
aI53
aI39
aI42
aI26
aI81
aI38
aI9
aI28
aI74
aI82
aI26
aI31
aI10
aI11
aI72
aI232
aI7
aI104
aI8
aI19
aI25
aI10
aI13
aI18
aI14
aI9
aI9
aI26
aI14
aI33
aI22
aI16
aI19
aI28
aI8
aI12
aI7
aI8
aI14
aI44
aI18
aI10
aI31
aI13
aI18
aI48
aI42
aI5
aI17
aI73
aI31
aI8
aI33
aI22
aI55
aI137
aI23
aI27
aI14
aI7
aI13
aI17
aI14
aI11
aI14
aI19
aI10
aI23
aI50
aI5
aI24
aI27
aI26
aI17
aI19
aI14
aI54
aI8
aI74
aI17
aI18
aI25
aI10
aI410
aI8
aI13
aI26
aI28
aI145
aI236
aI334
aI17
aI150
aI18
aI20
aI19
aI13
aI168
aI268
aI8
aI7
aI19
aI6
aI23
aI19
aI26
aI31
aI25
aI31
aI21
aI141
aI18
aI24
aI18
aI14
aI43
aI45
aI10
aI18
aI13
aI22
aI8
aI20
aI19
aI12
aI25
aI59
aI100
aI20
aI30
aI193
aI15
aI30
aI29
aI9
aI18
aI10
aI36
aI53
aI21
aI20
aI185
aI11
aI16
aI5
aI15
aI149
aI439
aI79
aI22
aI9
aI36
aI7
aI75
aI15
aI166
aI23
aI17
aI21
aI8
aI54
aI684
aI21
aI17
aI28
aI9
aI7
aI26
aI325
aI12
aI15
aI100
aI8
aI86
aI6
aI9
aI36
aI92
aI7
aI60
aI26
aI31
aI85
aI8
aI8
aI9
aI25
aI74
aI7
aI15
aI12
aI12
aI17
aI22
aI7
aI10
aI93
aI117
aI23
aI11
aI5
aI22
aI6
aI11
aI19
aI25
aI12
aI31
aI28
aI9
aI19
aI29
aI25
aI13
aI6
aI36
aI85
aI85
aI12
aI7
aI78
aI10
aI38
aI138
aI12
aI15
aI68
aI6
aI8
aI17
aI75
aI7
aI20
aI20
aI26
aI298
aI153
aI104
aI59
aI6
aI16
aI11
aI13
aI21
aI17
aI140
aI9
aI9
aI8
aI9
aI12
aI40
aI64
aI14
aI13
aI37
aI15
aI7
aI19
aI10
aI12
aI23
aI17
aI11
aI16
aI10
aI14
aI70
aI159
aI11
aI24
aI91
aI230
aI8
aI15
aI54
aI223
aI351
aI42
aI17
aI26
aI155
aI7
aI11
aI22
aI15
aI12
aI20
aI15
aI8
aI26
aI6
aI39
aI6
aI20
aI54
aI24
aI45
aI16
aI54
aI16
aI44
aI31
aI18
aI9
aI27
aI10
aI33
aI51
aI78
aI74
aI8
aI40
aI40
aI24
aI54
aI32
aI16
aI12
aI11
aI44
aI48
aI224
aI39
aI19
aI78
aI53
aI22
aI49
aI19
aI64
aI9
aI9
aI6
aI22
aI52
aI12
aI8
aI7
aI19
aI7
aI443
aI9
aI84
aI12
aI8
aI18
aI42
aI26
aI158
aI13
aI11
aI27
aI17
aI9
aI100
aI15
aI61
aI66
aI32
aI30
aI9
aI65
aI40
aI35
aI45
aI117
aI11
aI15
aI21
aI131
aI48
aI12
aI22
aI8
aI75
aI19
aI15
aI7
aI13
aI107
aI9
aI10
aI234
aI8
aI25
aI30
aI8
aI11
aI14
aI52
aI24
aI29
aI38
aI8
aI25
aI30
aI9
aI16
aI72
aI22
aI165
aI22
aI11
aI38
aI53
aI56
aI26
aI7
aI33
aI21
aI176
aI13
aI17
aI18
aI46
aI41
aI51
aI17
aI157
aI144
aI8
aI5
aI33
aI9
aI92
aI14
aI92
aI13
aI18
aI22
aI210
aI27
aI12
aI42
aI12
aI53
aI20
aI33
aI9
aI53
aI42
aI76
aI25
aI66
aI25
aI63
aI19
aI139
aI74
aI7
aI17
aI34
aI31
aI9
aI13
aI14
aI35
aI23
aI41
aI90
aI7
aI12
aI14
aI35
aI9
aI6
aI100
aI312
aI19
aI239
aI25
aI20
aI14
aI9
aI303
aI22
aI130
aI40
aI230
aI55
aI80
aI14
aI114
aI11
aI16
aI5
aI187
aI6
aI46
aI15
aI17
aI42
aI105
aI97
aI28
aI15
aI109
aI250
aI15
aI74
aI110
aI12
aI43
aI66
aI20
aI13
aI6
aI20
aI22
aI76
aI58
aI8
aI31
aI97
aI49
aI27
aI16
aI73
aI368
aI27
aI17
aI6
aI16
aI42
aI11
aI19
aI7
aI9
aI9
aI69
aI43
aI13
aI33
aI18
aI8
aI23
aI19
aI38
aI5
aI89
aI14
aI19
aI30
aI15
aI54
aI16
aI8
aI8
aI33
aI20
aI9
aI16
aI19
aI7
aI28
aI86
aI16
aI59
aI100
aI22
aI7
aI20
aI60
aI38
aI25
aI11
aI18
aI8
aI40
aI13
aI77
aI26
aI27
aI6
aI8
aI28
aI17
aI13
aI45
aI41
aI6
aI133
aI43
aI7
aI57
aI20
aI62
aI28
aI13
aI5
aI53
aI8
aI18
aI17
aI22
aI68
aI139
aI29
aI15
aI48
aI129
aI118
aI21
aI51
aI18
aI45
aI86
aI7
aI10
aI16
aI27
aI23
aI18
aI20
aI11
aI134
aI23
aI15
aI29
aI24
aI171
aI12
aI9
aI22
aI14
aI19
aI12
aI88
aI60
aI7
aI5
aI5
aI13
aI59
aI9
aI63
aI5
aI6
aI56
aI92
aI16
aI18
aI36
aI52
aI106
aI73
aI8
aI104
aI45
aI18
aI16
aI17
aI42
aI14
aI12
aI13
aI26
aI15
aI174
aI138
aI172
aI40
aI30
aI14
aI26
aI13
aI37
aI13
aI11
aI16
aI23
aI31
aI23
aI6
aI25
aI38
aI37
aI24
aI13
aI28
aI6
aI12
aI58
aI30
aI36
aI16
aI5
aI76
aI31
aI14
aI17
aI16
aI56
aI11
aI43
aI51
aI10
aI22
aI12
aI12
aI15
aI15
aI1151
aI41
aI9
aI28
aI15
aI11
aI83
aI51
aI5000
aI45
aI25
aI7
aI39
aI8
aI35
aI32
aI6
aI19
aI34
aI23
aI8
aI12
aI5
aI35
aI9
aI5
aI26
aI30
aI17
aI46
aI22
aI26
aI30
aI31
aI37
aI41
aI16
aI15
aI7
aI11
aI23
aI49
aI9
aI28
aI27
aI30
aI12
aI12
aI85
aI40
aI12
aI78
aI51
aI67
aI41
aI19
aI74
aI102
aI87
aI14
aI6
aI23
aI12
aI30
aI11
aI65
aI52
aI85
aI10
aI81
aI13
aI132
aI7
aI128
aI11
aI30
aI136
aI46
aI44
aI56
aI73
aI34
aI46
aI150
aI130
aI28
aI65
aI5
aI127
aI98
aI14
aI32
aI13
aI62
aI77
aI58
aI108
aI28
aI60
aI5
aI26
aI9
aI11
aI19
aI32
aI69
aI5
aI85
aI7
aI24
aI35
aI31
aI13
aI8
aI25
aI72
aI25
aI5
aI40
aI21
aI12
aI34
aI21
aI14
aI18
aI171
aI15
aI83
aI55
aI20
aI32
aI59
aI27
aI16
aI13
aI18
aI11
aI5
aI17
aI29
aI20
aI32
aI27
aI48
aI44
aI15
aI2203
aI6
aI39
aI6
aI17
aI43
aI28
aI6
aI6
aI33
aI22
aI18
aI8
aI13
aI59
aI54
aI21
aI26
aI18
aI7
aI35
aI20
aI13
aI66
aI8
aI26
aI6
aI15
aI28
aI16
aI73
aI28
aI32
aI17
aI12
aI8
aI25
aI25
aI77
aI21
aI50
aI14
aI69
aI46
aI5
aI6
aI74
aI10
aI28
aI29
aI28
aI15
aI28
aI19
aI17
aI12
aI14
aI7
aI69
aI54
aI12
aI5
aI12
aI43
aI5
aI69
aI13
aI8
aI23
aI13
aI15
aI35
aI5
aI17
aI26
aI80
aI14
aI8
aI5
aI24
aI67
aI5
aI6
aI34
aI33
aI6
aI54
aI62
aI38
aI48
aI18
aI32
aI31
aI24
aI16
aI71
aI51
aI54
aI8
aI13
aI51
aI11
aI34
aI7
aI64
aI19
aI28
aI12
aI33
aI93
aI42
aI56
aI49
aI6
aI13
aI13
aI34
aI8
aI31
aI40
aI6
aI10
aI30
aI25
aI37
aI14
aI46
aI22
aI55
aI32
aI14
aI34
aI30
aI57
aI13
aI34
aI6
aI16
aI26
aI26
aI5
aI14
aI17
aI30
aI52
aI64
aI5
aI34
aI6
aI46
aI18
aI12
aI63
aI14
aI6
aI30
aI17
aI20
aI211
aI27
aI21
aI15
aI55
aI7
aI19
aI17
aI31
aI22
aI50
aI12
aI14
aI7
aI18
aI55
aI37
aI39
aI34
aI79
aI9
aI53
aI61
aI19
aI70
aI27
aI23
aI24
aI58
aI17
aI30
aI7
aI7
aI7
aI11
aI6
aI10
aI6
aI18
aI29
aI39
aI14
aI6
aI12
aI33
aI15
aI15
aI31
aI150
aI13
aI8
aI34
aI15
aI16
aI15
aI13
aI16
aI13
aI17
aI33
aI15
aI16
aI16
aI18
aI13
aI27
aI33
aI22
aI10
aI43
aI117
aI13
aI31
aI6
aI28
aI8
aI27
aI28
aI21
aI36
aI13
aI6
aI36
aI6
aI26
aI13
aI30
aI13
aI12
aI25
aI33
aI7
aI7
aI36
aI9
aI14
aI34
aI38
aI16
aI78
aI111
aI11
aI49
aI29
aI14
aI13
aI18
aI19
aI118
aI7
aI47
aI38
aI47
aI35
aI35
aI57
aI58
aI6
aI17
aI12
aI15
aI40
aI20
aI43
aI26
aI33
aI47
aI10
aI15
aI8
aI6
aI24
aI23
aI36
aI14
aI12
aI24
aI13
aI29
aI13
aI26
aI6
aI22
aI31
aI29
aI12
aI6
aI32
aI3275
aI16
aI5
aI19
aI26
aI13
aI41
aI13
aI5
aI26
aI27
aI14
aI85
aI27
aI8
aI41
aI21
aI21
aI27
aI25
aI66
aI25
aI10
aI19
aI24
aI28
aI15
aI12
aI26
aI22
aI13
aI22
aI25
aI14
aI11
aI17
aI30
aI6
aI12
aI27
aI29
aI7
aI12
aI7
aI6
aI12
aI27
aI6
aI13
aI17
aI6
aI6
aI40
aI15
aI8
aI20
aI6
aI13
aI41
aI23
aI26
aI26
aI13
aI23
aI5
aI19
aI22
aI23
aI20
aI24
aI23
aI23
aI23
aI26
aI22
aI27
aI24
aI37
aI23
aI30
aI7
aI10
aI7
aI8
aI19
aI27
aI28
aI16
aI33
aI6
aI35
aI23
aI31
aI21
aI27
aI6
aI23
aI13
aI5
aI23
aI25
aI31
aI13
aI46
aI23
aI13
aI100
aI18
aI23
aI19
aI23
aI18
aI6
aI15
aI6
aI5
aI6
aI21
aI27
aI19
aI24
aI14
aI23
aI42
aI24
aI19
aI13
aI15
aI12
aI27
aI32
aI23
aI13
aI23
aI22
aI15
aI23
aI13
aI23
aI21
aI15
aI13
aI13
aI5
aI22
aI10
aI23
aI7
aI23
aI26
aI23
aI23
aI25
aI21
aI9
aI26
aI1467
aI23
aI23
aI23
aI6
aI25
aI15
aI23
aI6
aI23
aI23
aI19
aI17
aI8
aI23
aI19
aI6
aI20
aI28
aI19
aI21
aI6
aI23
aI30
aI20
aI25
aI16
aI21
aI23
aI23
aI14
aI23
aI19
aI24
aI13
aI31
aI19
aI23
aI13
aI25
aI6
aI7
aI25
aI23
aI13
aI27
aI24
aI30
aI23
aI58
aI24
aI24
aI17
aI13
aI29
aI31
aI25
aI15
aI13
aI13
aI6
aI25
aI34
aI31
aI40
aI17
aI30
aI15
aI6
aI19
aI29
aI55
aI6
aI32
aI27
aI23
aI17
aI15
aI17
aI21
aI28
aI23
aI24
aI25
aI23
aI32
aI32
aI23
aI13
aI34
aI25
aI5
aI23
aI23
aI24
aI13
aI13
aI19
aI342
aI23
aI26
aI5
aI163
aI19
aI13
aI6
aI26
aI23
aI23
aI25
aI24
aI19
aI21
aI13
aI14
aI36
aI14
aI24
aI27
aI20
aI28
aI24
aI5
aI23
aI15
aI23
aI13
aI23
aI31
aI19
aI13
aI23
aI23
aI31
aI23
aI23
aI23
aI20
aI23
aI13
aI24
aI27
aI5
aI13
aI23
aI20
aI37
aI5
aI26
aI13
aI20
aI13
aI6
aI26
aI14
aI23
aI23
aI5
aI19
aI18
aI24
aI27
aI25
aI23
aI19
aI18
aI6
aI25
aI6
aI13
aI5
aI6
aI24
aI29
aI24
aI17
aI25
aI20
aI6
aI21
aI32
aI37
aI24
aI24
aI25
aI25
aI23
aI13
aI13
aI24
aI6
aI17
aI13
aI23
aI24
aI13
aI24
aI24
aI26
aI23
aI5
aI24
aI19
aI13
aI13
aI23
aI20
aI24
aI24
aI23
aI23
aI13
aI5
aI24
aI28
aI24
aI5
aI13
aI31
aI31
aI30
aI21
aI13
aI42
aI24
aI50
aI36
aI36
aI41
aI26
aI13
aI50
aI5
aI34
aI52
aI29
aI12
aI62
aI74
aI50
aI26
aI111
aI73
aI13
aI13
aI29
aI88
aI13
aI26
aI27
aI29
aI34
aI32
aI13
aI20
aI26
aI26
aI25
aI34
aI6
aI28
aI23
aI24
aI25
aI13
aI25
aI20
aI13
aI19
aI20
aI29
aI6
aI19
aI19
aI25
aI9
aI6
aI22
aI25
aI6
aI30
aI25
aI29
aI23
aI37
aI29
aI6
aI25
aI15
aI8
aI22
aI9
aI5
aI19
aI6
aI19
aI25
aI19
aI15
aI13
aI19
aI9
aI23
aI13
aI14
aI23
aI26
aI27
aI9
aI5
aI13
aI5
aI13
aI19
aI23
aI13
aI5
aI6
aI19
aI19
aI17
aI13
aI5
aI24
aI13
aI23
aI5
aI6
aI19
aI23
aI23
aI19
aI23
aI23
aI26
aI24
aI23
aI24
aI23
aI5
aI19
aI5
aI15
aI23
aI6
aI24
aI25
aI20
aI20
aI19
aI24
aI23
aI24
aI13
aI23
aI20
aI25
aI29
aI24
aI23
aI25
aI19
aI23
aI27
aI24
aI23
aI19
aI23
aI5
aI24
aI6
aI21
aI25
aI5
aI6
aI25
aI23
aI20
aI5
aI13
aI19
aI25
aI27
aI23
aI5
aI23
aI10
aI19
aI23
aI21
aI25
aI33
aI6
aI23
aI31
aI23
aI21
aI8
aI25
aI5
aI25
aI6
aI27
aI23
aI5
aI6
aI19
aI23
aI23
aI23
aI13
aI23
aI19
aI23
aI23
aI13
aI15
aI13
aI7
aI23
aI23
aI13
aI23
aI17
aI19
aI19
aI24
aI13
aI25
aI13
aI23
aI19
aI25
aI22
aI10
aI19
aI19
aI13
aI19
aI19
aI25
aI20
aI19
aI9
aI23
aI6
aI19
aI23
aI7
aI19
aI13
aI25
aI14
aI5
aI23
aI29
aI23
aI19
aI23
aI20
aI23
aI23
aI23
aI13
aI14
aI5
aI20
aI27
aI13
aI19
aI23
aI19
aI25
aI21
aI24
aI23
aI19
aI23
aI13
aI23
aI13
aI23
aI13
aI13
aI20
aI19
aI13
aI19
aI13
aI23
aI13
aI26
aI27
aI13
aI21
aI23
aI19
aI13
aI23
aI5
aI21
aI23
aI15
aI23
aI19
aI23
aI13
aI13
aI19
aI23
aI19
aI19
aI23
aI21
aI24
aI23
aI13
aI24
aI19
aI22
aI15
aI24
aI20
aI13
aI19
aI17
aI23
aI27
aI15
aI21
aI13
aI23
aI23
aI49
aI37
aI5000
aI25
aI5
aI5000
aI29
aI25
aI25
aI30
aI21
aI34
aI24
aI24
aI19
aI21
aI23
aI13
aI23
aI13
aI24
aI30
aI25
aI20
aI5
aI23
aI13
aI25
aI23
aI23
aI23
aI23
aI24
aI31
aI5
aI23
aI5
aI21
aI25
aI43
aI23
aI19
aI23
aI23
aI23
aI19
aI27
aI34
aI21
aI24
aI23
aI23
aI23
aI23
aI25
aI25
aI13
aI23
aI23
aI24
aI23
aI13
aI23
aI24
aI5
aI13
aI23
aI5
aI6
aI19
aI13
aI28
aI23
aI21
aI28
aI24
aI23
aI24
aI24
aI19
aI39
aI13
aI13
aI23
aI13
aI21
aI13
aI13
aI25
aI20
aI15
aI13
aI13
aI30
aI13
aI19
aI47
aI13
aI27
aI13
aI34
aI13
aI44
aI25
aI22
aI23
aI13
aI19
aI23
aI25
aI26
aI19
aI24
aI13
aI23
aI23
aI5
aI23
aI13
aI6
aI26
aI5
aI23
aI25
aI20
aI23
aI19
aI19
aI6
aI24
aI6
aI17
aI5
aI13
aI5
aI23
aI15
aI28
aI27
aI23
aI30
aI13
aI15
aI24
aI15
aI31
aI13
aI13
aI23
aI13
aI23
aI36
aI23
aI13
aI56
aI13
aI13
aI34
aI24
aI13
aI24
aI24
aI13
aI26
aI30
aI26
aI24
aI32
aI32
aI23
aI23
aI30
aI23
aI13
aI13
aI23
aI13
aI19
aI26
aI19
aI26
aI13
aI19
aI13
aI24
aI26
aI13
aI49
aI13
aI23
aI30
aI47
aI19
aI13
aI20
aI14
aI23
aI23
aI5
aI19
aI28
aI23
aI13
aI47
aI19
aI19
aI5
aI23
aI13
aI19
aI21
aI6
aI23
aI23
aI6
aI13
aI19
aI22
aI21
aI5
aI5
aI18
aI23
aI25
aI23
aI23
aI14
aI19
aI13
aI19
aI6
aI23
aI16
aI69
aI13
aI23
aI14
aI5
aI20
aI25
aI13
aI17
aI15
aI15
aI19
aI23
aI23
aI28
aI15
aI13
aI25
aI5
aI23
aI13
aI23
aI24
aI23
aI13
aI24
aI5
aI23
aI15
aI27
aI23
aI23
aI13
aI25
aI23
aI16
aI13
aI19
aI23
aI27
aI24
aI25
aI15
aI23
aI13
aI19
aI19
aI19
aI20
aI13
aI19
aI19
aI19
aI26
aI13
aI19
aI22
aI13
aI30
aI14
aI23
aI13
aI19
aI23
aI26
aI5
aI24
aI24
aI5
aI13
aI14
aI23
aI24
aI28
aI15
aI14
aI23
aI14
aI23
aI14
aI19
aI28
aI27
aI13
aI22
aI23
aI13
aI13
aI21
aI13
aI19
aI24
aI23
aI22
aI19
aI20
aI23
aI23
aI13
aI36
aI26
aI25
aI19
aI23
aI7
aI30
aI26
aI25
aI13
aI25
aI23
aI13
aI19
aI19
aI26
aI24
aI23
aI5
aI6
aI5
aI23
aI14
aI13
aI5
aI48
aI24
aI19
aI26
aI25
aI13
aI20
aI27
aI24
aI23
aI27
aI24
aI13
aI13
aI38
aI13
aI36
aI13
aI26
aI5
aI28
aI23
aI23
aI23
aI15
aI31
aI15
aI34
aI5
aI26
aI34
aI25
aI53
aI24
aI19
aI21
aI29
aI31
aI34
aI26
aI12
aI28
aI23
aI13
aI5
aI43
aI23
aI33
aI27
aI28
aI60
aI23
aI27
aI26
aI19
aI32
aI23
aI26
aI26
aI34
aI30
aI13
aI27
aI13
aI24
aI25
aI13
aI19
aI23
aI33
aI24
aI5
aI5
aI13
aI25
aI19
aI37
aI29
aI5
aI13
aI13
aI23
aI29
aI23
aI23
aI13
aI13
aI27
aI23
aI19
aI28
aI23
aI20
aI14
aI13
aI24
aI5
aI5
aI19
aI19
aI15
aI5
aI5
aI23
aI5
aI13
aI14
aI19
aI5
aI5
aI23
aI5
aI23
aI13
aI25
aI30
aI25
aI23
aI30
aI5
aI26
aI25
aI24
aI15
aI30
aI20
aI13
aI19
aI31
aI19
aI26
aI23
aI19
aI41
aI6
aI25
aI24
aI26
aI30
aI33
aI24
aI36
aI5
aI21
aI13
aI14
aI13
aI12
aI63
aI13
aI45
aI14
aI62
aI1009
aI13
aI78
aI280
aI515
aI15
aI81
aI142
aI83
aI13
aI5
aI119
aI67
aI87
aI57
aI195
aI40
aI115
aI57
aI12
aI13
aI20
aI33
aI13
aI192
aI13
aI31
aI27
aI13
aI54
aI67
aI13
aI13
aI56
aI13
aI69
aI13
aI32
aI34
aI31
aI33
aI13
aI28
aI26
aI53
aI49
aI124
aI13
aI24
aI5
aI13
aI5
aI24
aI23
aI19
aI13
aI21
aI25
aI26
aI5
aI23
aI13
aI13
aI36
aI13
aI13
aI34
aI14
aI5
aI27
aI25
aI23
aI13
aI25
aI15
aI5
aI25
aI27
aI6
aI24
aI23
aI26
aI13
aI24
aI26
aI25
aI24
aI13
aI27
aI17
aI23
aI13
aI5
aI23
aI29
aI25
aI23
aI5
aI26
aI13
aI13
aI19
aI26
aI29
aI29
aI35
aI26
aI5
aI24
aI17
aI13
aI24
aI13
aI35
aI35
aI13
aI35
aI33
aI13
aI13
aI13
aI25
aI24
aI6
aI22
aI29
aI35
aI13
aI13
aI14
aI13
aI24
aI32
aI5
aI14
aI25
aI24
aI13
aI26
aI25
aI30
aI13
aI29
aI23
aI25
aI23
aI17
aI28
aI28
aI8
aI13
aI28
aI5
aI14
aI25
aI15
aI13
aI25
aI27
aI7
aI25
aI5
aI27
aI5
aI21
aI6
aI23
aI32
aI8
aI13
aI26
aI11
aI25
aI7
aI30
aI29
aI13
aI28
aI5
aI9
aI29
aI26
aI13
aI31
aI14
aI27
aI31
aI24
aI7
aI7
aI24
aI15
aI24
aI13
aI5
aI13
aI24
aI39
aI28
aI20
aI24
aI23
aI24
aI24
aI13
aI24
aI13
aI31
aI13
aI26
aI24
aI31
aI13
aI28
aI42
aI32
aI5
aI27
aI24
aI5
aI25
aI26
aI17
aI13
aI16
aI25
aI15
aI17
aI25
aI5
aI25
aI34
aI25
aI15
aI23
aI30
aI28
aI107
aI36
aI15
aI15
aI24
aI20
aI26
aI23
aI26
aI13
aI26
aI23
aI27
aI13
aI24
aI23
aI20
aI19
aI27
aI24
aI20
aI19
aI19
aI7
aI24
aI26
aI29
aI19
aI17
aI27
aI19
aI21
aI29
aI21
aI20
aI26
aI11
aI18
aI24
aI23
aI15
aI19
aI31
aI15
aI25
aI33
aI29
aI8
aI7
aI26
aI29
aI23
aI28
aI23
aI19
aI75
aI15
aI23
aI25
aI23
aI35
aI19
aI7
aI13
aI13
aI26
aI28
aI29
aI20
aI26
aI26
aI12
aI13
aI30
aI29
aI19
aI28
aI32
aI12
aI13
aI53
aI5
aI28
aI37
aI15
aI13
aI26
aI43
aI15
aI38
aI13
aI13
aI59
aI41
aI13
aI28
aI33
aI42
aI71
aI28
aI26
aI49
aI13
aI31
aI23
aI13
aI17
aI28
aI33
aI32
aI25
aI30
aI13
aI21
aI31
aI32
aI21
aI34
aI25
aI30
aI32
aI22
aI39
aI28
aI28
aI25
aI28
aI6
aI29
aI30
aI22
aI30
aI13
aI5
aI26
aI7
aI24
aI24
aI13
aI5
aI20
aI5
aI5
aI5
aI13
aI28
aI24
aI17
aI23
aI13
aI11
aI23
aI25
aI24
aI26
aI24
aI23
aI22
aI25
aI35
aI30
aI31
aI30
aI34
aI19
aI24
aI21
aI24
aI20
aI24
aI24
aI24
aI24
aI25
aI24
aI24
aI13
aI23
aI24
aI24
aI24
aI13
aI24
aI37
aI13
aI13
aI29
aI19
aI5
aI5
aI23
aI19
aI24
aI13
aI13
aI34
aI19
aI24
aI5
aI13
aI23
aI16
aI27
aI28
aI26
aI19
aI24
aI26
aI13
aI13
aI24
aI20
aI23
aI26
aI5
aI19
aI24
aI24
aI20
aI24
aI23
aI24
aI13
aI24
aI13
aI26
aI59
aI14
aI13
aI21
aI25
aI23
aI24
aI36
aI24
aI24
aI39
aI27
aI32
aI24
aI21
aI13
aI14
aI19
aI26
aI23
aI26
aI13
aI25
aI23
aI25
aI13
aI24
aI19
aI23
aI27
aI24
aI24
aI27
aI14
aI24
aI13
aI24
aI26
aI25
aI5
aI24
aI24
aI25
aI25
aI28
aI24
aI23
aI6
aI19
aI24
aI15
aI40
aI34
aI6
aI15
aI25
aI28
aI15
aI8
aI7
aI11
aI17
aI12
aI34
aI31
aI10
aI52
aI33
aI36
aI36
aI20
aI25
aI27
aI24
aI31
aI31
aI11
aI10
aI19
aI48
aI15
aI21
aI27
aI19
aI9
aI17
aI21
aI6
aI42
aI11
aI29
aI23
aI31
aI27
aI10
aI8
aI8
aI8
aI30
aI6
aI12
aI33
aI32
aI8
aI6
aI29
aI6
aI26
aI27
aI31
aI13
aI19
aI26
aI5
aI15
aI24
aI13
aI26
aI13
aI26
aI25
aI19
aI28
aI23
aI24
aI10
aI24
aI13
aI15
aI25
aI19
aI13
aI5
aI19
aI25
aI19
aI23
aI26
aI30
aI28
aI26
aI17
aI10
aI13
aI24
aI26
aI13
aI42
aI26
aI26
aI29
aI27
aI33
aI16
aI36
aI15
aI13
aI19
aI5
aI26
aI13
aI25
aI21
aI13
aI24
aI30
aI31
aI13
aI24
aI27
aI13
aI24
aI13
aI33
aI27
aI24
aI37
aI13
aI33
aI32
aI26
aI34
aI17
aI19
aI24
aI25
aI26
aI5
aI23
aI13
aI25
aI26
aI7
aI13
aI27
aI31
aI28
aI35
aI15
aI41
aI23
aI25
aI19
aI31
aI13
aI21
aI32
aI25
aI35
aI27
aI26
aI34
aI42
aI24
aI24
aI33
aI13
aI24
aI13
aI5
aI15
aI5
aI31
aI23
aI13
aI17
aI32
aI17
aI30
aI24
aI26
aI25
aI6
aI17
aI13
aI6
aI29
aI24
aI26
aI29
aI19
aI30
aI25
aI23
aI23
aI6
aI29
aI24
aI24
aI13
aI24
aI27
aI6
aI24
aI27
aI23
aI35
aI28
aI29
aI26
aI35
aI32
aI17
aI51
aI33
aI24
aI13
aI23
aI27
aI13
aI24
aI25
aI24
aI24
aI24
aI19
aI24
aI19
aI31
aI21
aI6
aI17
aI13
aI13
aI15
aI15
aI23
aI26
aI5
aI29
aI19
aI19
aI13
aI10
aI23
aI30
aI33
aI25
aI26
aI24
aI19
aI23
aI24
aI5
aI21
aI27
aI27
aI6
aI6
aI24
aI29
aI26
aI6
aI39
aI24
aI5
aI29
aI23
aI5
aI26
aI13
aI30
aI6
aI13
aI26
aI23
aI5
aI23
aI21
aI19
aI23
aI24
aI24
aI27
aI9
aI5
aI24
aI28
aI29
aI13
aI23
aI23
aI24
aI28
aI23
aI13
aI13
aI19
aI29
aI15
aI27
aI27
aI6
aI31
aI24
aI6
aI27
aI13
aI20
aI21
aI26
aI5
aI25
aI25
aI33
aI13
aI24
aI6
aI13
aI26
aI23
aI24
aI30
aI6
aI25
aI23
aI28
aI26
aI29
aI6
aI13
aI21
aI13
aI13
aI13
aI21
aI19
aI28
aI5
aI24
aI24
aI24
aI28
aI23
aI24
aI27
aI19
aI25
aI13
aI30
aI24
aI29
aI24
aI30
aI26
aI13
aI24
aI28
aI25
aI31
aI19
aI15
aI13
aI14
aI30
aI6
aI13
aI37
aI13
aI13
aI5000
aI13
aI34
aI26
aI69
aI59
aI26
aI5
aI13
aI33
aI13
aI52
aI24
aI43
aI24
aI13
aI23
aI13
aI24
aI34
aI13
aI5
aI33
aI26
aI28
aI13
aI63
aI34
aI24
aI25
aI24
aI24
aI30
aI28
aI25
aI13
aI19
aI24
aI13
aI24
aI26
aI13
aI5
aI24
aI13
aI13
aI24
aI27
aI24
aI13
aI13
aI13
aI26
aI13
aI13
aI24
aI13
aI28
aI25
aI13
aI13
aI24
aI24
aI24
aI24
aI13
aI24
aI19
aI23
aI13
aI5
aI24
aI13
aI13
aI23
aI26
aI24
aI5
aI24
aI26
aI24
aI24
aI13
aI28
aI13
aI21
aI26
aI19
aI13
aI24
aI19
aI19
aI26
aI13
aI25
aI13
aI24
aI26
aI13
aI23
aI26
aI28
aI24
aI27
aI28
aI38
aI32
aI13
aI28
aI32
aI26
aI13
aI27
aI28
aI26
aI26
aI24
aI25
aI30
aI26
aI13
aI13
aI30
aI24
aI13
aI31
aI44
aI26
aI37
aI24
aI13
aI13
aI24
aI28
aI13
aI34
aI28
aI5
aI24
aI25
aI44
aI32
aI13
aI23
aI48
aI31
aI13
aI39
aI26
aI25
aI34
aI32
aI13
aI26
aI13
aI17
aI24
aI32
aI34
aI25
aI26
aI29
aI23
aI23
aI26
aI28
aI6
aI6
aI24
aI13
aI15
aI23
aI30
aI5
aI24
aI6
aI24
aI23
aI22
aI25
aI19
aI13
aI24
aI6
aI6
aI28
aI17
aI27
aI23
aI5
aI24
aI23
aI24
aI13
aI15
aI26
aI24
aI24
aI26
aI21
aI23
aI13
aI23
aI13
aI15
aI13
aI26
aI13
aI23
aI24
aI32
aI13
aI13
aI18
aI13
aI5
aI19
aI26
aI23
aI6
aI13
aI26
aI24
aI24
aI24
aI36
aI6
aI13
aI24
aI26
aI13
aI6
aI24
aI30
aI21
aI13
aI6
aI24
aI21
aI24
aI13
aI24
aI15
aI6
aI24
aI24
aI24
aI5
aI21
aI26
aI5
aI24
aI21
aI17
aI13
aI24
aI13
aI26
aI15
aI24
aI19
aI26
aI23
aI6
aI21
aI23
aI28
aI28
aI23
aI26
aI23
aI24
aI24
aI24
aI28
aI25
aI13
aI26
aI5
aI23
aI23
aI13
aI27
aI19
aI6
aI23
aI23
aI26
aI24
aI23
aI5
aI23
aI26
aI19
aI15
aI30
aI24
aI24
aI24
aI24
aI19
aI23
aI34
aI23
aI19
aI23
aI23
aI13
aI13
aI40
aI19
aI5
aI25
aI13
aI23
aI25
aI15
aI23
aI21
aI19
aI13
aI22
aI13
aI22
aI15
aI23
aI13
aI27
aI30
aI13
aI25
aI15
aI32
aI27
aI13
aI25
aI23
aI27
aI19
aI23
aI20
aI13
aI23
aI15
aI23
aI23
aI13
aI15
aI13
aI23
aI23
aI5
aI13
aI21
aI5
aI23
aI13
aI41
aI24
aI13
aI19
aI23
aI23
aI23
aI13
aI5
aI27
aI13
aI18
aI15
aI19
aI24
aI24
aI5
aI13
aI23
aI13
aI13
aI24
aI13
aI24
aI23
aI13
aI26
aI25
aI30
aI5
aI24
aI23
aI29
aI24
aI41
aI24
aI24
aI13
aI19
aI13
aI13
aI32
aI29
aI13
aI25
aI24
aI13
aI31
aI19
aI24
aI30
aI25
aI24
aI13
aI39
aI24
aI5
aI34
aI5
aI28
aI27
aI5
aI13
aI36
aI33
aI23
aI13
aI23
aI23
aI13
aI5
aI13
aI24
aI26
aI13
aI24
aI24
aI23
aI16
aI5
aI13
aI24
aI27
aI24
aI24
aI24
aI5
aI13
aI26
aI24
aI24
aI24
aI26
aI30
aI5
aI24
aI24
aI25
aI5
aI52
aI5
aI27
aI13
aI24
aI13
aI24
aI25
aI13
aI28
aI73
aI23
aI34
aI24
aI30
aI5
aI13
aI29
aI24
aI23
aI26
aI23
aI23
aI26
aI24
aI13
aI23
aI26
aI24
aI60
aI25
aI24
aI13
aI19
aI297
aI24
aI24
aI27
aI13
aI13
aI13
aI30
aI13
aI38
aI26
aI15
aI24
aI24
aI27
aI13
aI23
aI24
aI24
aI25
aI19
aI13
aI13
aI5
aI33
aI27
aI5
aI5
aI25
aI23
aI21
aI23
aI25
aI19
aI37
aI19
aI13
aI19
aI24
aI5
aI13
aI24
aI15
aI24
aI25
aI13
aI23
aI13
aI23
aI23
aI5
aI23
aI23
aI30
aI24
aI23
aI23
aI23
aI24
aI25
aI13
aI23
aI13
aI23
aI23
aI23
aI6
aI21
aI19
aI18
aI29
aI23
aI23
aI23
aI23
aI15
aI13
aI23
aI24
aI13
aI25
aI5
aI21
aI25
aI13
aI15
aI13
aI15
aI27
aI23
aI13
aI23
aI13
aI13
aI19
aI23
aI19
aI13
aI19
aI23
aI19
aI13
aI19
aI23
aI13
aI53
aI19
aI15
aI13
aI19
aI21
aI13
aI23
aI23
aI5
aI23
aI23
aI23
aI23
aI23
aI13
aI24
aI23
aI21
aI24
aI13
aI25
aI19
aI5
aI23
aI13
aI23
aI23
aI16
aI19
aI13
aI19
aI13
aI19
aI25
aI19
aI13
aI24
aI23
aI16
aI24
aI23
aI23
aI23
aI19
aI24
aI13
aI23
aI21
aI5
aI21
aI23
aI5
aI23
aI13
aI24
aI24
aI23
aI23
aI6
aI23
aI23
aI19
aI13
aI13
aI13
aI23
aI23
aI19
aI21
aI23
aI19
aI23
aI13
aI23
aI5
aI23
aI23
aI19
aI19
aI24
aI19
aI13
aI23
aI23
aI23
aI26
aI19
aI19
aI13
aI13
aI13
aI23
aI23
aI5
aI23
aI19
aI13
aI19
aI9
aI23
aI23
aI23
aI19
aI23
aI23
aI19
aI13
aI24
aI25
aI23
aI21
aI13
aI23
aI23
aI23
aI23
aI23
aI13
aI13
aI24
aI31
aI23
aI24
aI23
aI22
aI23
aI13
aI13
aI33
aI23
aI64
aI21
aI19
aI36
aI5
aI25
aI13
aI32
aI13
aI5
aI23
aI32
aI25
aI15
aI25
aI29
aI45
aI25
aI23
aI22
aI29
aI29
aI27
aI13
aI13
aI21
aI23
aI15
aI12
aI5
aI15
aI24
aI13
aI13
aI23
aI23
aI23
aI23
aI42
aI13
aI13
aI24
aI24
aI19
aI23
aI23
aI23
aI23
aI24
aI19
aI19
aI23
aI5
aI23
aI21
aI23
aI13
aI23
aI13
aI23
aI23
aI13
aI21
aI25
aI13
aI23
aI23
aI19
aI5
aI23
aI29
aI25
aI19
aI23
aI23
aI13
aI23
aI23
aI13
aI19
aI13
aI23
aI23
aI5
aI19
aI25
aI25
aI23
aI13
aI13
aI23
aI21
aI25
aI24
aI21
aI23
aI27
aI19
aI23
aI19
aI23
aI25
aI23
aI23
aI15
aI13
aI23
aI23
aI13
aI13
aI19
aI5
aI13
aI24
aI21
aI24
aI19
aI21
aI13
aI13
aI20
aI19
aI5
aI13
aI19
aI5
aI23
aI5
aI23
aI13
aI19
aI19
aI23
aI21
aI24
aI13
aI23
aI23
aI23
aI23
aI26
aI13
aI23
aI23
aI29
aI24
aI23
aI19
aI26
aI24
aI13
aI13
aI35
aI13
aI5
aI15
aI23
aI26
aI23
aI25
aI17
aI13
aI24
aI5000
aI19
aI27
aI33
aI21
aI14
aI26
aI24
aI31
aI13
aI25
aI15
aI23
aI25
aI25
aI24
aI21
aI24
aI25
aI26
aI25
aI5000
aI28
aI24
aI48
aI41
aI24
aI23
aI23
aI21
aI25
aI35
aI26
aI28
aI27
aI23
aI13
aI33
aI6
aI8
aI25
aI15
aI5
aI29
aI27
aI31
aI13
aI13
aI25
aI24
aI5000
aI13
aI32
aI24
aI26
aI6
aI59
aI5
aI36
aI24
aI5
aI58
aI28
aI32
aI127
aI36
aI5000
aI7
aI6
aI36
aI33
aI6
aI15
aI24
aI24
aI6
aI13
aI5000
aI24
aI39
aI79
aI28
aI24
aI28
aI32
aI24
aI25
aI27
aI17
aI33
aI26
aI34
aI5
aI24
aI32
aI36
aI26
aI26
aI24
aI13
aI24
aI36
aI31
aI29
aI15
aI24
aI17
aI24
aI35
aI15
aI32
aI13
aI19
aI25
aI24
aI26
aI24
aI13
aI13
aI24
aI30
aI32
aI26
aI38
aI13
aI38
aI36
aI13
aI48
aI30
aI24
aI26
aI15
aI13
aI13
aI26
aI13
aI37
aI15
aI27
aI24
aI24
aI29
aI24
aI24
aI24
aI24
aI24
aI13
aI27
aI5
aI24
aI13
aI24
aI23
aI31
aI24
aI40
aI24
aI27
aI28
aI24
aI24
aI13
aI25
aI31
aI37
aI13
aI39
aI24
aI27
aI24
aI36
aI27
aI24
aI24
aI26
aI31
aI24
aI29
aI28
aI13
aI23
aI29
aI35
aI19
aI24
aI24
aI5
aI26
aI27
aI13
aI29
aI23
aI26
aI13
aI24
aI24
aI15
aI24
aI24
aI17
aI32
aI23
aI13
aI24
aI13
aI24
aI29
aI24
aI27
aI5
aI29
aI25
aI13
aI30
aI32
aI36
aI23
aI15
aI35
aI34
aI24
aI13
aI12
aI15
aI13
aI24
aI13
aI27
aI26
aI24
aI24
aI5
aI13
aI24
aI13
aI5
aI15
aI28
aI23
aI24
aI26
aI27
aI29
aI15
aI27
aI29
aI5
aI15
aI29
aI30
aI32
aI29
aI34
aI29
aI24
aI24
aI13
aI30
aI27
aI15
aI13
aI36
aI5
aI26
aI53
aI49
aI30
aI31
aI24
aI13
aI13
aI13
aI30
aI24
aI5
aI28
aI34
aI23
aI23
aI30
aI24
aI24
aI29
aI24
aI33
aI5
aI24
aI28
aI14
aI13
aI24
aI35
aI5
aI24
aI30
aI25
aI13
aI37
aI13
aI5
aI31
aI24
aI24
aI24
aI24
aI33
aI24
aI27
aI33
aI13
aI24
aI24
aI13
aI5
aI13
aI28
aI13
aI32
aI24
aI33
aI13
aI13
aI24
aI36
aI28
aI35
aI25
aI24
aI13
aI29
aI35
aI13
aI34
aI13
aI26
aI24
aI13
aI13
aI13
aI24
aI35
aI30
aI24
aI26
aI13
aI13
aI24
aI24
aI24
aI29
aI5
aI35
aI29
aI24
aI23
aI35
aI26
aI13
aI35
aI39
aI26
aI26
aI26
aI13
aI27
aI35
aI26
aI25
aI13
aI26
aI13
aI13
aI24
aI34
aI24
aI31
aI28
aI5
aI17
aI24
aI27
aI5
aI32
aI25
aI23
aI24
aI44
aI15
aI6
aI24
aI29
aI15
aI5
aI24
aI24
aI32
aI36
aI30
aI31
aI13
aI28
aI15
aI24
aI24
aI24
aI24
aI24
aI13
aI23
aI24
aI25
aI24
aI24
aI32
aI24
aI13
aI32
aI38
aI21
aI24
aI24
aI26
aI24
aI24
aI23
aI5
aI35
aI25
aI25
aI24
aI24
aI26
aI28
aI26
aI24
aI26
aI24
aI24
aI26
aI31
aI24
aI26
aI5
aI26
aI24
aI24
aI5
aI13
aI31
aI23
aI23
aI27
aI15
aI15
aI24
aI24
aI27
aI17
aI13
aI23
aI11
aI5
aI5
aI25
aI9
aI21
aI17
aI26
aI26
aI15
aI27
aI25
aI13
aI13
aI27
aI17
aI23
aI24
aI24
aI5
aI15
aI13
aI26
aI5
aI32
aI25
aI33
aI27
aI13
aI33
aI5
aI24
aI26
aI6
aI24
aI26
aI29
aI25
aI24
aI5
aI42
aI24
aI28
aI32
aI24
aI26
aI29
aI30
aI13
aI29
aI24
aI19
aI31
aI5
aI41
aI13
aI44
aI24
aI24
aI23
aI23
aI33
aI5
aI19
aI5
aI5
aI24
aI29
aI31
aI30
aI24
aI34
aI23
aI24
aI13
aI13
aI35
aI24
aI24
aI30
aI24
aI26
aI24
aI23
aI33
aI27
aI24
aI41
aI23
aI13
aI32
aI13
aI25
aI24
aI27
aI20
aI24
aI17
aI24
aI5
aI24
aI28
aI23
aI24
aI13
aI28
aI29
aI23
aI23
aI5
aI25
aI24
aI24
aI29
aI32
aI26
aI26
aI24
aI26
aI24
aI13
aI26
aI13
aI7
aI28
aI26
aI13
aI39
aI35
aI25
aI25
aI33
aI13
aI32
aI30
aI15
aI23
aI24
aI21
aI24
aI28
aI29
aI24
aI24
aI15
aI13
aI13
aI30
aI24
aI26
aI15
aI27
aI13
aI13
aI13
aI24
aI24
aI24
aI30
aI24
aI13
aI46
aI24
aI13
aI27
aI13
aI24
aI13
aI5
aI24
aI5
aI24
aI13
aI13
aI13
aI13
aI26
aI33
aI24
aI24
aI30
aI13
aI24
aI24
aI24
aI31
aI5
aI30
aI13
aI26
aI24
aI25
aI27
aI24
aI13
aI24
aI24
aI13
aI24
aI13
aI41
aI13
aI24
aI29
aI23
aI24
aI24
aI23
aI13
aI24
aI25
aI31
aI30
aI25
aI26
aI23
aI23
aI23
aI27
aI19
aI23
aI13
aI23
aI25
aI5
aI23
aI25
aI19
aI13
aI13
aI5
aI13
aI13
aI23
aI13
aI19
aI21
aI13
aI5
aI23
aI30
aI13
aI66
aI13
aI13
aI19
aI32
aI25
aI27
aI19
aI23
aI20
aI23
aI7
aI30
aI14
aI13
aI25
aI5
aI23
aI19
aI13
aI26
aI13
aI23
aI21
aI21
aI21
aI29
aI23
aI27
aI13
aI13
aI24
aI21
aI24
aI23
aI25
aI23
aI19
aI20
aI23
aI24
aI25
aI19
aI13
aI24
aI26
aI26
aI5
aI26
aI23
aI13
aI24
aI24
aI13
aI29
aI19
aI27
aI25
aI13
aI13
aI13
aI24
aI13
aI33
aI13
aI23
aI30
aI5
aI30
aI24
aI24
aI24
aI24
aI24
aI25
aI30
aI24
aI13
aI13
aI13
aI5
aI13
aI24
aI24
aI24
aI24
aI24
aI13
aI5
aI24
aI29
aI26
aI24
aI25
aI13
aI15
aI13
aI27
aI31
aI24
aI24
aI25
aI13
aI24
aI13
aI13
aI26
aI27
aI24
aI24
aI27
aI30
aI25
aI24
aI13
aI34
aI13
aI30
aI13
aI23
aI24
aI13
aI24
aI23
aI5
aI24
aI31
aI25
aI13
aI37
aI24
aI13
aI24
aI31
aI24
aI24
aI29
aI24
aI24
aI24
aI24
aI13
aI13
aI13
asS'reward'
p7
(lp8
I252
aI271
aI61
aI61
aI135
aI143
aI199
aI221
aI-51
aI208
aI25
aI307
aI285
aI108
aI138
aI301
aI225
aI38
aI274
aI126
aI164
aI233
aI145
aI446
aI314
aI217
aI155
aI288
aI111
aI200
aI627
aI218
aI45
aI121
aI431
aI229
aI44
aI241
aI151
aI158
aI366
aI-161
aI253
aI284
aI155
aI253
aI340
aI52
aI241
aI36
aI260
aI45
aI138
aI329
aI26
aI231
aI349
aI256
aI235
aI430
aI143
aI153
aI154
aI248
aI242
aI410
aI147
aI145
aI451
aI136
aI36
aI105
aI249
aI-46
aI251
aI358
aI427
aI-61
aI330
aI139
aI403
aI278
aI128
aI306
aI32
aI154
aI37
aI140
aI242
aI146
aI155
aI7
aI151
aI128
aI368
aI53
aI456
aI237
aI230
aI152
aI439
aI248
aI513
aI38
aI278
aI344
aI147
aI247
aI-65
aI-838
aI44
aI247
aI317
aI238
aI67
aI-265
aI-338
aI41
aI150
aI252
aI353
aI229
aI25
aI177
aI-50
aI44
aI142
aI253
aI48
aI122
aI148
aI230
aI100
aI358
aI181
aI255
aI48
aI123
aI246
aI6
aI32
aI211
aI405
aI157
aI18
aI130
aI139
aI242
aI137
aI142
aI147
aI334
aI488
aI292
aI359
aI216
aI193
aI27
aI105
aI86
aI138
aI30
aI133
aI321
aI197
aI132
aI341
aI170
aI134
aI145
aI152
aI354
aI335
aI-338
aI373
aI325
aI51
aI192
aI43
aI273
aI108
aI-23
aI209
aI140
aI102
aI38
aI372
aI-1734
aI336
aI338
aI325
aI144
aI55
aI206
aI-545
aI252
aI114
aI196
aI-61
aI350
aI153
aI51
aI168
aI80
aI142
aI525
aI347
aI229
aI412
aI50
aI143
aI144
aI247
aI431
aI154
aI132
aI246
aI159
aI257
aI250
aI-56
aI139
aI309
aI525
aI140
aI146
aI53
aI109
aI252
aI239
aI247
aI457
aI135
aI427
aI256
aI243
aI235
aI338
aI235
aI241
aI153
aI303
aI61
aI484
aI30
aI148
aI219
aI139
aI521
aI123
aI240
aI360
aI431
aI153
aI155
aI128
aI192
aI148
aI341
aI341
aI341
aI-146
aI258
aI173
aI422
aI252
aI250
aI251
aI241
aI342
aI134
aI233
aI249
aI138
aI353
aI33
aI153
aI418
aI16
aI143
aI259
aI445
aI231
aI-56
aI130
aI133
aI252
aI437
aI239
aI29
aI349
aI46
aI254
aI322
aI282
aI251
aI228
aI301
aI-295
aI149
aI255
aI471
aI-5
aI-453
aI390
aI257
aI8
aI269
aI148
aI344
aI73
aI243
aI135
aI137
aI249
aI149
aI254
aI48
aI522
aI153
aI236
aI555
aI240
aI5683
aI361
aI408
aI238
aI341
aI316
aI246
aI144
aI354
aI145
aI435
aI441
aI570
aI521
aI149
aI424
aI430
aI345
aI285
aI323
aI121
aI141
aI158
aI287
aI648
aI428
aI516
aI340
aI558
aI524
aI349
aI127
aI241
aI505
aI138
aI27
aI147
aI214
aI511
aI135
aI254
aI148
aI334
aI154
aI-574
aI144
aI366
aI240
aI38
aI117
aI555
aI155
aI440
aI247
aI146
aI324
aI140
aI156
aI604
aI132
aI337
aI456
aI254
aI444
aI138
aI284
aI460
aI455
aI300
aI345
aI158
aI132
aI336
aI281
aI438
aI240
aI337
aI38
aI399
aI445
aI51
aI247
aI229
aI368
aI144
aI139
aI414
aI143
aI358
aI135
aI254
aI134
aI353
aI622
aI438
aI203
aI527
aI50
aI445
aI315
aI138
aI343
aI330
aI337
aI270
aI337
aI122
aI503
aI476
aI356
aI317
aI247
aI318
aI330
aI-37
aI247
aI263
aI357
aI628
aI560
aI282
aI356
aI214
aI216
aI44
aI152
aI324
aI150
aI584
aI347
aI-28
aI148
aI252
aI349
aI-141
aI336
aI252
aI648
aI351
aI488
aI458
aI360
aI144
aI278
aI648
aI424
aI352
aI384
aI550
aI627
aI241
aI352
aI443
aI247
aI356
aI535
aI433
aI132
aI259
aI119
aI308
aI269
aI536
aI435
aI142
aI357
aI353
aI419
aI150
aI153
aI397
aI-201
aI358
aI-160
aI433
aI335
aI254
aI33
aI12
aI226
aI160
aI418
aI263
aI550
aI521
aI254
aI429
aI257
aI145
aI53
aI322
aI153
aI511
aI348
aI443
aI309
aI369
aI256
aI343
aI249
aI418
aI301
aI249
aI590
aI284
aI252
aI556
aI624
aI347
aI253
aI147
aI242
aI331
aI511
aI658
aI149
aI439
aI454
aI496
aI459
aI454
aI436
aI137
aI417
aI437
aI-51
aI355
aI648
aI245
aI136
aI148
aI33
aI348
aI579
aI28
aI235
aI645
aI357
aI353
aI449
aI253
aI638
aI152
aI365
aI353
aI241
aI636
aI261
aI678
aI361
aI353
aI248
aI657
aI359
aI156
aI448
aI253
aI253
aI565
aI626
aI361
aI518
aI628
aI454
aI148
aI347
aI612
aI527
aI358
aI257
aI234
aI149
aI565
aI352
aI587
aI557
aI651
aI48
aI353
aI295
aI449
aI253
aI546
aI500
aI252
aI424
aI5699
aI148
aI579
aI347
aI455
aI436
aI259
aI152
aI413
aI149
aI123
aI140
aI139
aI152
aI193
aI296
aI342
aI195
aI237
aI271
aI114
aI339
aI333
aI498
aI494
aI142
aI355
aI355
aI453
aI245
aI147
aI347
aI257
aI383
aI338
aI360
aI518
aI363
aI198
aI240
aI255
aI448
aI458
aI457
aI357
aI412
aI630
aI154
aI152
aI152
aI358
aI428
aI255
aI345
aI152
aI252
aI317
aI233
aI232
aI234
aI531
aI454
aI562
aI526
aI353
aI509
aI492
aI444
aI349
aI362
aI531
aI359
aI357
aI358
aI404
aI354
aI459
aI534
aI313
aI5666
aI432
aI242
aI5706
aI358
aI520
aI154
aI251
aI355
aI332
aI5675
aI362
aI252
aI457
aI452
aI568
aI462
aI247
aI559
aI252
aI252
aI5708
aI543
aI462
aI256
aI152
aI436
aI223
aI143
aI110
aI145
aI446
aI245
aI211
aI171
aI256
aI349
aI153
aI258
aI150
aI342
aI-1864
aI407
aI249
aI553
aI108
aI140
aI548
aI558
aI-17947
aI534
aI346
aI247
aI459
aI353
aI530
aI557
aI153
aI457
aI301
aI560
aI353
aI357
aI152
aI623
aI354
aI152
aI440
aI660
aI362
aI337
aI559
aI662
aI561
aI538
aI667
aI560
aI460
aI348
aI148
aI140
aI536
aI550
aI255
aI5702
aI558
aI573
aI357
aI357
aI367
aI349
aI357
aI525
aI327
aI466
aI506
aI229
aI491
aI546
aI357
aI347
aI48
aI443
aI153
aI408
aI257
aI377
aI517
aI571
aI139
aI417
aI253
aI441
aI148
aI131
aI257
aI432
aI340
aI301
aI521
aI428
aI484
aI436
aI430
aI327
aI574
aI430
aI464
aI152
aI331
aI578
aI347
aI275
aI358
aI440
aI518
aI511
aI489
aI646
aI612
aI152
aI452
aI243
aI257
aI253
aI335
aI657
aI152
aI631
aI253
aI561
aI443
aI562
aI358
aI353
aI5705
aI363
aI433
aI152
aI541
aI564
aI357
aI559
aI360
aI359
aI363
aI543
aI354
aI659
aI556
aI563
aI557
aI482
aI570
aI460
aI358
aI345
aI257
aI152
aI455
aI641
aI458
aI668
aI435
aI618
aI5718
aI348
aI-3398
aI252
aI663
aI153
aI350
aI544
aI238
aI252
aI252
aI447
aI448
aI345
aI353
aI19
aI5703
aI459
aI465
aI446
aI561
aI253
aI554
aI254
aI358
aI5704
aI254
aI569
aI153
aI360
aI442
aI244
aI592
aI547
aI533
aI356
aI357
aI38
aI538
aI445
aI566
aI459
aI557
aI353
aI366
aI511
aI152
aI48
aI662
aI28
aI547
aI443
aI535
aI342
aI571
aI463
aI455
aI357
aI347
aI253
aI486
aI525
aI357
aI152
aI357
aI649
aI152
aI5653
aI358
aI353
aI554
aI352
aI255
aI560
aI152
aI257
aI551
aI551
aI347
aI353
aI152
aI450
aI601
aI152
aI252
aI634
aI558
aI252
aI468
aI503
aI533
aI546
aI561
aI644
aI445
aI660
aI256
aI653
aI546
aI588
aI254
aI358
aI639
aI257
aI535
aI142
aI604
aI556
aI658
aI357
aI663
aI669
aI531
aI608
aI550
aI252
aI358
aI229
aI535
aI143
aI526
aI136
aI153
aI349
aI642
aI550
aI544
aI359
aI571
aI355
aI451
aI545
aI353
aI658
aI642
aI447
aI358
aI553
aI252
aI349
aI551
aI452
aI152
aI359
aI461
aI543
aI493
aI532
aI152
aI325
aI252
aI664
aI450
aI357
aI5731
aI353
aI252
aI456
aI362
aI464
aI415
aI5707
aI558
aI144
aI544
aI154
aI223
aI209
aI175
aI256
aI638
aI246
aI224
aI253
aI345
aI571
aI445
aI609
aI253
aI472
aI150
aI524
aI631
aI253
aI463
aI324
aI548
aI555
aI517
aI350
aI561
aI253
aI253
aI253
aI356
aI252
aI355
aI252
aI450
aI389
aI558
aI359
aI252
aI246
aI669
aI360
aI360
aI364
aI432
aI352
aI254
aI571
aI261
aI355
aI261
aI352
aI256
aI358
aI362
aI5713
aI360
aI355
aI361
aI339
aI253
aI342
aI5713
aI361
aI256
aI685
aI489
aI247
aI5723
aI252
aI640
aI254
aI564
aI5702
aI465
aI5722
aI358
aI147
aI636
aI252
aI650
aI358
aI5692
aI358
aI357
aI5681
aI546
aI253
aI148
aI426
aI354
aI119
aI19
aI602
aI109
aI471
aI-132
aI356
aI79
aI191
aI119
aI334
aI327
aI94
aI292
aI253
aI-52
aI356
aI518
aI623
aI248
aI5593
aI5552
aI252
aI338
aI456
aI342
aI5702
aI323
aI613
aI5676
aI564
aI593
aI349
aI348
aI254
aI252
aI567
aI566
aI525
aI353
aI357
aI5710
aI358
aI425
aI352
aI5700
aI252
aI442
aI532
aI548
aI357
aI153
aI557
aI-7066
aI361
aI53
aI562
aI569
aI358
aI677
aI154
aI152
aI5712
aI570
aI359
aI502
aI5719
aI254
aI659
aI453
aI558
aI552
aI457
aI5584
aI445
aI250
aI562
aI444
aI5714
aI360
aI357
aI329
aI256
aI154
aI460
aI5717
aI254
aI257
aI251
aI5710
aI48
aI252
aI5707
aI548
aI253
aI357
aI148
aI252
aI357
aI5719
aI252
aI358
aI455
aI252
aI252
aI5714
aI354
aI254
aI446
aI252
aI358
aI5685
aI5715
aI5712
aI5712
aI259
aI5715
aI152
aI562
aI658
aI5715
aI557
aI537
aI5715
aI5715
aI5703
aI5712
aI559
aI5695
aI561
aI673
aI5715
aI456
aI154
aI349
aI154
aI353
aI562
aI5707
aI442
aI355
aI564
aI252
aI5715
aI5715
aI655
aI552
aI5695
aI252
aI5715
aI358
aI152
aI5715
aI5705
aI655
aI358
aI670
aI5715
aI358
aI433
aI561
aI5715
aI463
aI455
aI561
aI153
aI360
aI252
aI152
aI252
aI552
aI5707
aI562
aI5710
aI353
aI5715
aI5722
aI561
aI562
aI358
aI243
aI357
aI651
aI638
aI5715
aI358
aI5715
aI460
aI360
aI566
aI358
aI5715
aI564
aI360
aI352
aI358
aI152
aI559
aI349
aI5715
aI253
aI5715
aI5700
aI5715
aI5715
aI5705
aI564
aI255
aI5712
aI-3141
aI5715
aI554
aI5715
aI252
aI5705
aI348
aI5715
aI252
aI5715
aI5715
aI562
aI350
aI353
aI308
aI562
aI252
aI557
aI5702
aI562
aI552
aI252
aI542
aI5704
aI557
aI5705
aI343
aI564
aI5715
aI5715
aI353
aI5715
aI562
aI5710
aI358
aI649
aI562
aI5715
aI358
aI5705
aI252
aI253
aI532
aI5715
aI358
aI5707
aI561
aI5680
aI5715
aI5612
aI537
aI5710
aI350
aI358
aI5697
aI5699
aI544
aI459
aI358
aI358
aI252
aI5705
aI5660
aI5675
aI5642
aI338
aI5704
aI348
aI252
aI328
aI5709
aI5567
aI252
aI5706
aI5695
aI554
aI338
aI348
aI350
aI564
aI529
aI5715
aI549
aI5705
aI5715
aI374
aI569
aI5715
aI358
aI5708
aI5717
aI152
aI5715
aI5715
aI5710
aI358
aI358
aI562
aI-738
aI5715
aI5712
aI152
aI5123
aI562
aI358
aI252
aI5712
aI5715
aI566
aI5705
aI5710
aI463
aI552
aI358
aI353
aI630
aI248
aI561
aI447
aI557
aI5702
aI5710
aI152
aI5715
aI360
aI5715
aI358
aI5715
aI655
aI562
aI358
aI5715
aI5715
aI5687
aI5715
aI5715
aI5715
aI557
aI5715
aI358
aI5710
aI5707
aI152
aI358
aI5715
aI557
aI5645
aI152
aI5700
aI358
aI662
aI358
aI252
aI5712
aI353
aI5715
aI5715
aI152
aI562
aI357
aI5710
aI5707
aI5705
aI5715
aI562
aI357
aI252
aI5705
aI252
aI358
aI152
aI252
aI5710
aI5697
aI5710
aI362
aI5705
aI557
aI252
aI552
aI5670
aI5657
aI5710
aI5710
aI5705
aI5705
aI5715
aI358
aI358
aI5710
aI252
aI338
aI358
aI5715
aI5710
aI358
aI5710
aI5710
aI5700
aI5715
aI152
aI5710
aI562
aI358
aI358
aI5715
aI557
aI5710
aI5710
aI5715
aI5715
aI358
aI152
aI5710
aI541
aI5710
aI152
aI358
aI574
aI568
aI5716
aI558
aI358
aI5716
aI5710
aI5724
aI5698
aI525
aI572
aI551
aI358
aI590
aI152
aI5708
aI5654
aI524
aI357
aI5592
aI491
aI5724
aI5700
aI507
aI490
aI358
aI253
aI5697
aI541
aI358
aI5712
aI5695
aI5685
aI5672
aI668
aI358
aI557
aI5712
aI5700
aI5705
aI5684
aI252
aI5714
aI5715
aI5710
aI5705
aI358
aI5705
aI557
aI358
aI562
aI557
aI5685
aI252
aI562
aI229
aI532
aI354
aI252
aI559
aI5705
aI252
aI507
aI5705
aI512
aI5715
aI5705
aI5673
aI252
aI5705
aI348
aI254
aI547
aI354
aI152
aI562
aI252
aI562
aI5705
aI562
aI225
aI358
aI562
aI255
aI5715
aI358
aI254
aI5715
aI5700
aI522
aI255
aI152
aI358
aI152
aI358
aI562
aI5715
aI358
aI152
aI252
aI562
aI562
aI350
aI358
aI152
aI5710
aI358
aI5715
aI152
aI252
aI562
aI5715
aI5715
aI562
aI5715
aI5715
aI5700
aI5710
aI5715
aI5710
aI5715
aI152
aI562
aI152
aI249
aI5715
aI252
aI5710
aI5705
aI557
aI557
aI562
aI5710
aI5715
aI5710
aI358
aI542
aI557
aI5705
aI5697
aI537
aI5715
aI5705
aI562
aI5715
aI5707
aI5710
aI5715
aI562
aI5715
aI152
aI5710
aI252
aI552
aI5705
aI152
aI252
aI5717
aI5715
aI557
aI152
aI358
aI562
aI5705
aI5695
aI5715
aI152
aI5715
aI349
aI562
aI5715
aI552
aI5705
aI381
aI252
aI5715
aI5687
aI542
aI552
aI353
aI5717
aI152
aI5705
aI252
aI5707
aI5715
aI152
aI252
aI5711
aI5715
aI5715
aI5715
aI358
aI5715
aI562
aI5715
aI5715
aI358
aI360
aI358
aI253
aI5715
aI5715
aI358
aI5715
aI344
aI562
aI562
aI5710
aI358
aI5717
aI358
aI5715
aI562
aI5705
aI559
aI355
aI562
aI562
aI358
aI562
aI562
aI5705
aI557
aI562
aI255
aI5715
aI252
aI562
aI554
aI253
aI562
aI358
aI5705
aI353
aI152
aI5715
aI5709
aI5715
aI562
aI5715
aI557
aI5715
aI5715
aI5715
aI358
aI353
aI152
aI557
aI5707
aI358
aI316
aI5715
aI562
aI5717
aI564
aI5710
aI5715
aI562
aI5715
aI358
aI5715
aI358
aI5715
aI352
aI358
aI557
aI562
aI358
aI562
aI358
aI5715
aI352
aI5712
aI5707
aI358
aI552
aI5715
aI562
aI358
aI5715
aI152
aI5701
aI308
aI360
aI5715
aI562
aI5715
aI358
aI358
aI562
aI5715
aI562
aI562
aI5715
aI564
aI5710
aI5715
aI358
aI5710
aI562
aI559
aI459
aI5710
aI557
aI358
aI562
aI350
aI566
aI5695
aI459
aI564
aI358
aI5715
aI542
aI529
aI5693
aI-22795
aI5705
aI152
aI-22579
aI5685
aI5705
aI5705
aI5692
aI552
aI5660
aI5710
aI5710
aI562
aI552
aI5715
aI358
aI5715
aI358
aI5710
aI5692
aI5705
aI557
aI152
aI5715
aI358
aI5705
aI5715
aI5715
aI5715
aI5715
aI5710
aI5723
aI152
aI5715
aI152
aI552
aI5705
aI649
aI5715
aI562
aI5715
aI5715
aI5715
aI562
aI5719
aI634
aI552
aI5710
aI5715
aI5715
aI5715
aI5715
aI5717
aI5717
aI358
aI5715
aI5715
aI5710
aI5715
aI358
aI5715
aI5710
aI152
aI358
aI5715
aI152
aI252
aI562
aI358
aI658
aI5715
aI564
aI5690
aI5710
aI5715
aI5710
aI5710
aI562
aI5695
aI358
aI358
aI653
aI358
aI552
aI358
aI358
aI457
aI557
aI348
aI358
aI358
aI438
aI358
aI562
aI455
aI358
aI5707
aI253
aI523
aI358
aI5670
aI544
aI547
aI5715
aI253
aI562
aI5715
aI5705
aI5700
aI562
aI5710
aI358
aI5715
aI5715
aI152
aI5715
aI358
aI252
aI5700
aI152
aI5715
aI5705
aI557
aI5715
aI562
aI562
aI252
aI5710
aI252
aI350
aI152
aI358
aI152
aI5715
aI348
aI5690
aI5707
aI5715
aI5716
aI358
aI360
aI5710
aI360
aI661
aI358
aI358
aI542
aI358
aI5715
aI561
aI5715
aI253
aI5598
aI358
aI352
aI511
aI5710
aI358
aI5710
aI5710
aI154
aI5700
aI5716
aI5712
aI5710
aI5682
aI5706
aI659
aI5715
aI5716
aI5715
aI358
aI358
aI5715
aI358
aI562
aI5712
aI562
aI5712
aI358
aI562
aI358
aI5710
aI5712
aI358
aI5729
aI358
aI5715
aI5716
aI641
aI562
aI358
aI557
aI353
aI5715
aI5715
aI152
aI562
aI5702
aI5715
aI358
aI5715
aI562
aI562
aI152
aI5715
aI358
aI328
aI330
aI252
aI5715
aI5715
aI252
aI358
aI562
aI547
aI564
aI152
aI152
aI345
aI5715
aI5705
aI5715
aI5715
aI353
aI562
aI358
aI562
aI252
aI5715
aI454
aI5533
aI358
aI5715
aI353
aI152
aI557
aI5717
aI358
aI338
aI348
aI360
aI562
aI5715
aI5715
aI5702
aI360
aI358
aI5717
aI152
aI5715
aI358
aI5715
aI5710
aI5715
aI358
aI5710
aI152
aI5715
aI360
aI5719
aI5715
aI5715
aI358
aI5717
aI5715
aI355
aI358
aI562
aI5715
aI5719
aI5710
aI5717
aI360
aI5715
aI358
aI562
aI562
aI562
aI557
aI358
aI562
aI562
aI562
aI5712
aI358
aI562
aI559
aI358
aI5704
aI353
aI5715
aI358
aI562
aI5715
aI5712
aI152
aI5710
aI5710
aI152
aI358
aI353
aI5715
aI5710
aI5714
aI249
aI254
aI5715
aI353
aI5715
aI353
aI562
aI5702
aI5719
aI358
aI559
aI5715
aI358
aI358
aI552
aI358
aI562
aI5710
aI5715
aI658
aI562
aI557
aI5715
aI5715
aI358
aI5722
aI5712
aI5717
aI562
aI5715
aI253
aI5716
aI5712
aI5705
aI358
aI5717
aI5715
aI358
aI562
aI562
aI5700
aI5710
aI5715
aI152
aI252
aI152
aI5715
aI353
aI358
aI152
aI5638
aI5710
aI562
aI5712
aI5705
aI358
aI557
aI5695
aI5710
aI5715
aI5719
aI5710
aI358
aI358
aI5700
aI358
aI5698
aI358
aI5712
aI152
aI5702
aI5715
aI5715
aI5715
aI348
aI5711
aI348
aI5696
aI152
aI527
aI5708
aI5705
aI593
aI5710
aI340
aI552
aI5709
aI5699
aI5660
aI5712
aI129
aI5690
aI5715
aI358
aI152
aI5639
aI5715
aI5689
aI5707
aI5702
aI5578
aI5715
aI5719
aI5712
aI562
aI5694
aI5715
aI539
aI5700
aI5696
aI5680
aI358
aI5695
aI358
aI5710
aI544
aI358
aI562
aI5715
aI5701
aI5710
aI152
aI152
aI358
aI5717
aI562
aI655
aI5721
aI152
aI358
aI358
aI5715
aI467
aI5715
aI5715
aI358
aI358
aI5695
aI566
aI562
aI5690
aI5715
aI557
aI353
aI358
aI5710
aI152
aI152
aI562
aI562
aI150
aI152
aI152
aI5715
aI152
aI358
aI353
aI562
aI152
aI152
aI5715
aI152
aI5715
aI352
aI556
aI5698
aI5705
aI5715
aI5680
aI152
aI5712
aI5705
aI5710
aI348
aI5716
aI557
aI358
aI562
aI5711
aI562
aI5712
aI5715
aI562
aI5649
aI252
aI5717
aI5710
aI5700
aI5692
aI5713
aI5710
aI660
aI152
aI552
aI253
aI254
aI358
aI357
aI657
aI358
aI504
aI155
aI5688
aI-1160
aI253
aI543
aI88
aI-220
aI243
aI5701
aI514
aI611
aI253
aI152
aI386
aI589
aI570
aI5629
aI264
aI628
aI361
aI417
aI18
aI154
aI125
aI663
aI358
aI5536
aI253
aI550
aI633
aI358
aI5638
aI643
aI253
aI154
aI584
aI253
aI633
aI154
aI5694
aI442
aI526
aI5665
aI358
aI5690
aI5712
aI5649
aI397
aI5552
aI358
aI5710
aI152
aI358
aI152
aI5710
aI5715
aI562
aI358
aI552
aI5717
aI5712
aI152
aI5715
aI358
aI358
aI5722
aI358
aI358
aI5708
aI353
aI152
aI5695
aI5705
aI5715
aI358
aI5717
aI348
aI152
aI5705
aI5707
aI252
aI5710
aI5715
aI5712
aI358
aI5710
aI5700
aI5705
aI5710
aI358
aI5695
aI362
aI5715
aI358
aI152
aI653
aI641
aI5705
aI665
aI152
aI5712
aI358
aI358
aI562
aI5712
aI647
aI5697
aI542
aI5700
aI152
aI5710
aI338
aI358
aI5710
aI358
aI5679
aI5715
aI358
aI5667
aI5665
aI358
aI358
aI358
aI5717
aI5710
aI252
aI658
aI5697
aI5655
aI358
aI358
aI347
aI358
aI5710
aI533
aI152
aI458
aI5705
aI5710
aI358
aI5712
aI5717
aI5692
aI358
aI5721
aI5715
aI5705
aI5715
aI338
aI5690
aI628
aI353
aI358
aI5702
aI152
aI353
aI5705
aI348
aI358
aI5717
aI5707
aI253
aI5705
aI152
aI5707
aI152
aI318
aI252
aI5715
aI5682
aI149
aI358
aI5700
aI344
aI5705
aI253
aI5680
aI5685
aI358
aI5690
aI152
aI138
aI5685
aI5712
aI118
aI502
aI452
aI5695
aI526
aI5710
aI142
aI148
aI5710
aI459
aI5710
aI358
aI152
aI358
aI5710
aI5707
aI5714
aI557
aI5710
aI5715
aI5710
aI5710
aI358
aI5710
aI358
aI538
aI358
aI5712
aI5710
aI5711
aI358
aI664
aI5710
aI497
aI152
aI447
aI5710
aI152
aI5705
aI5712
aI356
aI358
aI244
aI5705
aI150
aI338
aI5717
aI152
aI556
aI571
aI643
aI360
aI5715
aI5680
aI565
aI329
aI5686
aI459
aI354
aI5710
aI557
aI5712
aI5715
aI5712
aI352
aI5712
aI5715
aI5719
aI352
aI5710
aI5715
aI557
aI562
aI5719
aI5710
aI557
aI562
aI352
aI154
aI5710
aI5712
aI5721
aI562
aI350
aI5719
aI562
aI564
aI5721
aI564
aI557
aI5712
aI257
aI147
aI561
aI170
aI360
aI562
aI5723
aI360
aI5717
aI168
aI374
aI254
aI154
aI563
aI5721
aI362
aI565
aI566
aI364
aI711
aI360
aI5715
aI5717
aI5715
aI5727
aI562
aI154
aI358
aI358
aI5700
aI5714
aI524
aI557
aI5712
aI5712
aI357
aI358
aI567
aI5709
aI562
aI5702
aI533
aI357
aI358
aI659
aI152
aI5714
aI5657
aI243
aI253
aI5712
aI562
aI243
aI5700
aI358
aI253
aI5727
aI5649
aI358
aI5702
aI5689
aI5716
aI5715
aI5714
aI5712
aI5681
aI358
aI5723
aI653
aI358
aI233
aI5702
aI651
aI5670
aI532
aI5704
aI358
aI552
aI625
aI644
aI552
aI5720
aI5705
aI5704
aI5670
aI547
aI5713
aI5690
aI5714
aI5705
aI5690
aI252
aI5697
aI5716
aI559
aI5704
aI358
aI152
aI5700
aI142
aI5710
aI5710
aI358
aI152
aI557
aI152
aI152
aI152
aI358
aI5702
aI561
aI338
aI5715
aI358
aI344
aI5715
aI5717
aI5710
aI5700
aI5710
aI5715
aI448
aI5717
aI653
aI5704
aI5675
aI543
aI5708
aI562
aI5710
aI564
aI5710
aI557
aI561
aI5710
aI5710
aI561
aI5717
aI5710
aI5710
aI358
aI5715
aI5710
aI5710
aI5710
aI358
aI5710
aI5717
aI358
aI358
aI5721
aI562
aI152
aI152
aI5715
aI562
aI5710
aI358
aI358
aI559
aI562
aI5710
aI152
aI358
aI5715
aI355
aI558
aI5714
aI563
aI562
aI5710
aI5712
aI358
aI358
aI561
aI557
aI5715
aI5712
aI152
aI562
aI5710
aI5710
aI458
aI648
aI5715
aI5710
aI352
aI5710
aI358
aI539
aI476
aI254
aI358
aI453
aI5705
aI5715
aI5710
aI5704
aI5710
aI5710
aI663
aI5707
aI5694
aI5710
aI552
aI358
aI353
aI562
aI5712
aI5715
aI5700
aI358
aI5717
aI5715
aI5717
aI358
aI5710
aI562
aI5715
aI5707
aI5710
aI5710
aI558
aI353
aI5710
aI358
aI5710
aI5712
aI5717
aI152
aI5710
aI5710
aI532
aI5705
aI5690
aI5710
aI5715
aI252
aI562
aI5710
aI348
aI5642
aI5696
aI252
aI348
aI298
aI5690
aI348
aI149
aI253
aI344
aI314
aI129
aI5672
aI514
aI139
aI520
aI258
aI21
aI624
aI89
aI5705
aI288
aI204
aI5687
aI631
aI128
aI232
aI328
aI612
aI348
aI330
aI48
aI562
aI354
aI338
aI552
aI252
aI5632
aI128
aI5709
aI542
aI526
aI5695
aI232
aI353
aI242
aI353
aI5680
aI252
aI333
aI663
aI5670
aI353
aI252
aI5685
aI252
aI5712
aI5695
aI5687
aI358
aI328
aI5712
aI152
aI348
aI5710
aI358
aI5712
aI358
aI5712
aI5705
aI562
aI5666
aI5715
aI5710
aI349
aI5710
aI358
aI348
aI5705
aI562
aI358
aI152
aI562
aI5717
aI562
aI5715
aI5700
aI5704
aI5702
aI5700
aI338
aI139
aI358
aI5710
aI5700
aI358
aI630
aI5700
aI5700
aI5685
aI522
aI5701
aI343
aI5650
aI348
aI358
aI562
aI152
aI5712
aI358
aI5705
aI552
aI358
aI5710
aI5704
aI5687
aI358
aI5710
aI5695
aI358
aI5710
aI358
aI5689
aI5695
aI5710
aI5657
aI358
aI5665
aI5694
aI5700
aI5684
aI338
aI562
aI5710
aI550
aI5712
aI152
aI542
aI358
aI5705
aI5700
aI148
aI358
aI5695
aI5675
aI5702
aI5703
aI360
aI5649
aI5715
aI5717
aI562
aI5675
aI358
aI552
aI5670
aI5705
aI5679
aI5695
aI5712
aI5660
aI5644
aI5710
aI5710
aI5725
aI358
aI5710
aI358
aI152
aI348
aI152
aI5687
aI5715
aI358
aI338
aI5706
aI338
aI5680
aI5710
aI5700
aI5705
aI252
aI350
aI358
aI252
aI536
aI5710
aI5700
aI5685
aI562
aI5680
aI5705
aI5715
aI542
aI252
aI5709
aI5710
aI5710
aI358
aI5710
aI5695
aI252
aI5710
aI5695
aI5715
aI5667
aI5690
aI5685
aI5700
aI5655
aI5682
aI362
aI5575
aI5665
aI5710
aI358
aI5715
aI5707
aI358
aI5710
aI5705
aI5710
aI5710
aI5710
aI562
aI5710
aI562
aI5675
aI552
aI252
aI338
aI358
aI358
aI348
aI348
aI542
aI5700
aI152
aI5709
aI340
aI562
aI358
aI139
aI5715
aI5692
aI633
aI5705
aI5712
aI5710
aI562
aI5715
aI5710
aI152
aI552
aI570
aI5695
aI252
aI252
aI5710
aI5685
aI5712
aI252
aI510
aI5710
aI152
aI5685
aI5715
aI152
aI5700
aI358
aI5680
aI252
aI358
aI5700
aI5715
aI152
aI5715
aI552
aI562
aI5715
aI5710
aI5710
aI5695
aI255
aI152
aI5710
aI5702
aI5697
aI358
aI5715
aI5715
aI5710
aI5702
aI5715
aI358
aI358
aI562
aI5685
aI360
aI5695
aI5695
aI252
aI5699
aI5710
aI252
aI5707
aI358
aI440
aI564
aI5712
aI152
aI5705
aI532
aI5677
aI358
aI5710
aI252
aI358
aI5712
aI5715
aI5710
aI5680
aI252
aI5705
aI5715
aI5702
aI5700
aI5697
aI252
aI352
aI552
aI358
aI358
aI358
aI552
aI562
aI5702
aI152
aI5710
aI5710
aI5710
aI5690
aI5715
aI5710
aI5695
aI562
aI556
aI358
aI5680
aI5710
aI5697
aI5710
aI5680
aI5700
aI358
aI5710
aI5690
aI544
aI5675
aI562
aI348
aI358
aI353
aI5680
aI252
aI358
aI5657
aI358
aI358
aI-21307
aI358
aI5672
aI5700
aI5497
aI5547
aI5700
aI152
aI358
aI5677
aI358
aI5606
aI5710
aI5639
aI5710
aI358
aI5715
aI358
aI5710
aI5720
aI358
aI152
aI540
aI5700
aI5690
aI358
aI621
aI5660
aI5710
aI5705
aI5710
aI5710
aI5704
aI5702
aI556
aI358
aI562
aI5710
aI358
aI5710
aI5712
aI358
aI152
aI5710
aI358
aI358
aI5710
aI5695
aI5710
aI358
aI358
aI358
aI5700
aI358
aI358
aI5710
aI358
aI5714
aI5705
aI358
aI358
aI5710
aI5710
aI5710
aI5710
aI358
aI5710
aI562
aI5715
aI358
aI152
aI5710
aI358
aI358
aI5715
aI5712
aI5710
aI152
aI5710
aI5712
aI5710
aI5710
aI358
aI5690
aI358
aI564
aI5712
aI562
aI358
aI5710
aI562
aI562
aI464
aI358
aI5705
aI358
aI5710
aI5700
aI358
aI5715
aI5700
aI5690
aI5710
aI5695
aI5690
aI662
aI632
aI358
aI5702
aI5700
aI5712
aI358
aI5695
aI5702
aI5700
aI5700
aI5710
aI5717
aI5680
aI5700
aI358
aI358
aI5704
aI5710
aI358
aI5711
aI5622
aI5712
aI496
aI5710
aI358
aI358
aI5710
aI5702
aI358
aI5672
aI5690
aI152
aI5710
aI5717
aI5694
aI5682
aI358
aI5715
aI5626
aI5699
aI358
aI5659
aI5712
aI5705
aI5684
aI5670
aI358
aI5700
aI358
aI338
aI5710
aI5706
aI5720
aI532
aI5712
aI5697
aI5715
aI5715
aI5712
aI5702
aI252
aI252
aI5710
aI358
aI348
aI5715
aI5704
aI152
aI5710
aI252
aI5710
aI5715
aI559
aI568
aI562
aI358
aI5710
aI252
aI252
aI5702
aI338
aI5707
aI542
aI152
aI5710
aI542
aI5710
aI358
aI348
aI5700
aI5710
aI5710
aI5712
aI564
aI5715
aI358
aI5715
aI358
aI348
aI358
aI5712
aI358
aI5715
aI5710
aI5670
aI358
aI358
aI444
aI358
aI152
aI562
aI5700
aI5715
aI252
aI358
aI5700
aI5710
aI5710
aI5710
aI5722
aI252
aI358
aI5710
aI5712
aI358
aI252
aI5710
aI5680
aI552
aI358
aI252
aI5710
aI552
aI5710
aI358
aI5710
aI360
aI252
aI5710
aI5710
aI5710
aI152
aI552
aI5700
aI152
aI5710
aI552
aI350
aI358
aI5710
aI358
aI5700
aI354
aI5710
aI562
aI5700
aI5715
aI252
aI453
aI5715
aI5714
aI5690
aI5715
aI5700
aI5715
aI5710
aI5710
aI5710
aI5702
aI532
aI358
aI5700
aI152
aI5715
aI5715
aI358
aI5695
aI562
aI252
aI5715
aI5715
aI5700
aI5710
aI5715
aI152
aI5715
aI5700
aI562
aI348
aI5680
aI5710
aI5710
aI5710
aI5710
aI352
aI5715
aI5660
aI5715
aI562
aI5715
aI5715
aI358
aI358
aI5732
aI562
aI152
aI5717
aI358
aI5715
aI5717
aI360
aI5715
aI564
aI562
aI358
aI559
aI358
aI547
aI459
aI5715
aI358
aI360
aI567
aI358
aI370
aI360
aI5706
aI348
aI358
aI5705
aI5715
aI5719
aI562
aI5715
aI557
aI358
aI5715
aI360
aI5715
aI5715
aI358
aI360
aI358
aI5715
aI5715
aI152
aI358
aI564
aI152
aI5715
aI358
aI641
aI5710
aI358
aI562
aI5715
aI5715
aI5715
aI358
aI152
aI5695
aI358
aI561
aI348
aI562
aI5710
aI5710
aI152
aI358
aI5715
aI358
aI358
aI5710
aI358
aI5710
aI5715
aI358
aI5700
aI5705
aI5680
aI152
aI5710
aI5715
aI5685
aI5710
aI5637
aI5710
aI5710
aI358
aI562
aI358
aI358
aI5670
aI5685
aI358
aI5705
aI5710
aI358
aI5675
aI562
aI5710
aI5680
aI532
aI5710
aI358
aI5635
aI5710
aI152
aI5660
aI152
aI5690
aI5695
aI152
aI253
aI5662
aI663
aI5715
aI358
aI5715
aI5715
aI358
aI152
aI358
aI5710
aI5700
aI358
aI5710
aI5710
aI5715
aI256
aI152
aI358
aI5710
aI5695
aI5710
aI5710
aI5710
aI152
aI358
aI5700
aI5710
aI5710
aI5710
aI5700
aI5680
aI152
aI5710
aI5710
aI5705
aI152
aI652
aI152
aI522
aI358
aI5710
aI358
aI5710
aI5705
aI358
aI565
aI5549
aI5715
aI5660
aI5710
aI5692
aI152
aI358
aI5697
aI5710
aI542
aI5712
aI5715
aI542
aI5700
aI5710
aI358
aI5715
aI5700
aI5710
aI552
aI5705
aI5710
aI358
aI562
aI-621
aI5710
aI5710
aI5695
aI358
aI358
aI358
aI5680
aI358
aI5640
aI5700
aI360
aI5710
aI5710
aI5695
aI358
aI5715
aI5710
aI5710
aI5705
aI562
aI358
aI358
aI152
aI492
aI5695
aI152
aI152
aI5705
aI5715
aI552
aI5715
aI5705
aI562
aI5645
aI562
aI358
aI562
aI5710
aI152
aI358
aI5710
aI360
aI5710
aI532
aI358
aI5715
aI358
aI5715
aI5715
aI152
aI5715
aI5715
aI5680
aI5710
aI5715
aI5715
aI5715
aI5710
aI5705
aI358
aI5715
aI358
aI5715
aI5715
aI5715
aI252
aI564
aI562
aI357
aI5709
aI5715
aI5715
aI5715
aI5715
aI360
aI358
aI5715
aI5710
aI352
aI5717
aI152
aI564
aI5705
aI358
aI360
aI358
aI360
aI5695
aI5715
aI358
aI5715
aI358
aI358
aI562
aI5715
aI562
aI358
aI562
aI5715
aI562
aI358
aI562
aI5715
aI358
aI500
aI562
aI360
aI358
aI562
aI564
aI358
aI5715
aI5715
aI152
aI5715
aI5715
aI5715
aI5715
aI5715
aI358
aI537
aI5715
aI552
aI5710
aI358
aI5717
aI562
aI152
aI5715
aI358
aI5715
aI5715
aI355
aI562
aI358
aI562
aI358
aI562
aI5705
aI562
aI358
aI5710
aI542
aI355
aI5710
aI5715
aI5715
aI5715
aI562
aI5710
aI358
aI5715
aI552
aI152
aI552
aI5715
aI152
aI5715
aI358
aI5710
aI5710
aI5715
aI5715
aI252
aI5715
aI5715
aI562
aI358
aI352
aI358
aI5715
aI5715
aI562
aI552
aI5715
aI562
aI5715
aI358
aI5715
aI152
aI5715
aI5715
aI562
aI562
aI5710
aI562
aI358
aI5715
aI5715
aI5715
aI5700
aI562
aI562
aI358
aI358
aI358
aI5715
aI5715
aI152
aI5715
aI562
aI358
aI562
aI255
aI5715
aI5715
aI5715
aI562
aI5715
aI5715
aI562
aI358
aI5710
aI5717
aI5715
aI552
aI358
aI5715
aI5715
aI5715
aI5715
aI5715
aI253
aI358
aI5710
aI655
aI5715
aI5710
aI5715
aI559
aI542
aI358
aI358
aI645
aI5715
aI5606
aI552
aI562
aI648
aI152
aI532
aI253
aI656
aI253
aI152
aI554
aI5670
aI5705
aI348
aI5705
aI5685
aI597
aI532
aI5715
aI547
aI5685
aI641
aI5695
aI358
aI253
aI552
aI5715
aI243
aI357
aI152
aI348
aI5710
aI358
aI358
aI5715
aI5715
aI5715
aI5715
aI630
aI358
aI358
aI5710
aI5710
aI562
aI5715
aI542
aI5715
aI5715
aI5710
aI562
aI562
aI5715
aI152
aI5715
aI552
aI5715
aI358
aI5715
aI358
aI5715
aI5715
aI358
aI552
aI5717
aI358
aI5715
aI5715
aI562
aI152
aI5715
aI653
aI5717
aI562
aI5715
aI5715
aI358
aI5715
aI5715
aI358
aI562
aI358
aI5715
aI5715
aI152
aI562
aI5705
aI5705
aI5715
aI358
aI358
aI5715
aI552
aI5705
aI5710
aI552
aI5715
aI663
aI562
aI5715
aI562
aI5715
aI5705
aI5715
aI5715
aI243
aI358
aI5715
aI5715
aI358
aI154
aI562
aI152
aI358
aI5710
aI552
aI5710
aI562
aI552
aI358
aI358
aI557
aI562
aI152
aI358
aI562
aI152
aI5715
aI152
aI5715
aI358
aI562
aI562
aI5715
aI564
aI5710
aI358
aI5715
aI5715
aI5715
aI5715
aI5700
aI358
aI5715
aI5715
aI5685
aI5710
aI5715
aI562
aI5700
aI5710
aI358
aI358
aI5655
aI358
aI152
aI360
aI5715
aI5700
aI5715
aI5717
aI461
aI358
aI5710
aI-24091
aI562
aI5695
aI5665
aI360
aI458
aI5700
aI5710
aI514
aI358
aI5705
aI360
aI5715
aI5705
aI5705
aI5710
aI366
aI5710
aI5705
aI5700
aI5705
aI-23983
aI5690
aI5710
aI5716
aI5625
aI5710
aI5715
aI5715
aI354
aI5705
aI5655
aI5700
aI664
aI5695
aI5715
aI358
aI5641
aI252
aI149
aI5705
aI360
aI152
aI5685
aI5695
aI5675
aI358
aI358
aI5705
aI5710
aI-23323
aI358
aI5670
aI5710
aI5700
aI252
aI5547
aI152
aI5674
aI5710
aI152
aI5552
aI5690
aI5670
aI5171
aI5650
aI-23647
aI142
aI252
aI5650
aI5665
aI252
aI360
aI5710
aI5710
aI252
aI358
aI-23623
aI5710
aI5683
aI5411
aI5690
aI5710
aI5690
aI5670
aI5710
aI5705
aI5707
aI338
aI5665
aI5700
aI5660
aI152
aI5710
aI5670
aI5650
aI5700
aI5700
aI5710
aI358
aI5710
aI5674
aI5675
aI5685
aI360
aI5710
aI449
aI5710
aI5655
aI348
aI5694
aI358
aI562
aI5705
aI5710
aI5700
aI5710
aI358
aI358
aI5710
aI5680
aI5670
aI5700
aI5640
aI358
aI5640
aI5650
aI358
aI5590
aI5680
aI5710
aI5700
aI348
aI358
aI358
aI5700
aI358
aI5657
aI348
aI5695
aI5710
aI462
aI5685
aI5710
aI5710
aI5710
aI5710
aI5710
aI358
aI5695
aI152
aI5710
aI358
aI5710
aI5715
aI5675
aI5710
aI5630
aI5710
aI5695
aI5690
aI5710
aI5710
aI358
aI5705
aI5675
aI5645
aI358
aI5647
aI5710
aI5695
aI5710
aI5650
aI5695
aI5710
aI5710
aI5700
aI5675
aI5710
aI5685
aI5690
aI358
aI5715
aI5685
aI5655
aI364
aI5710
aI5710
aI152
aI5700
aI5695
aI358
aI5709
aI5715
aI5712
aI358
aI5710
aI5710
aI360
aI5710
aI5710
aI362
aI5670
aI566
aI358
aI5710
aI358
aI5710
aI5685
aI5710
aI5695
aI152
aI5685
aI5717
aI358
aI5680
aI5670
aI5650
aI5715
aI360
aI5679
aI5660
aI5710
aI358
aI357
aI348
aI358
aI5710
aI358
aI5695
aI5700
aI5710
aI5710
aI152
aI358
aI5710
aI358
aI152
aI348
aI5690
aI5715
aI5710
aI5700
aI5695
aI5685
aI360
aI5695
aI5685
aI152
aI360
aI5685
aI5692
aI5670
aI5697
aI5660
aI5697
aI5710
aI5710
aI358
aI5680
aI5695
aI348
aI358
aI636
aI152
aI5700
aI5565
aI5585
aI5680
aI5699
aI5710
aI358
aI154
aI358
aI5680
aI5710
aI152
aI5690
aI5660
aI5715
aI5715
aI5680
aI5710
aI5710
aI5697
aI5710
aI5701
aI152
aI5710
aI5690
aI353
aI358
aI5710
aI5691
aI152
aI5710
aI5680
aI5717
aI358
aI5681
aI358
aI152
aI5687
aI5710
aI5710
aI5710
aI5710
aI5665
aI5710
aI5695
aI5677
aI358
aI5710
aI5710
aI358
aI152
aI358
aI5702
aI358
aI5670
aI5710
aI5701
aI358
aI358
aI5710
aI5650
aI5690
aI5715
aI532
aI5710
aI358
aI5697
aI5691
aI358
aI5672
aI358
aI5700
aI5710
aI358
aI358
aI358
aI5710
aI5667
aI5704
aI5710
aI5700
aI358
aI358
aI5710
aI5710
aI5710
aI5709
aI152
aI5679
aI5685
aI5710
aI653
aI5679
aI5700
aI358
aI5667
aI5659
aI5712
aI5700
aI5700
aI358
aI5695
aI5703
aI5700
aI5705
aI358
aI5700
aI358
aI358
aI5710
aI5672
aI5710
aI5675
aI5702
aI152
aI338
aI5710
aI5695
aI152
aI5670
aI5705
aI5715
aI5710
aI5586
aI348
aI252
aI5710
aI5685
aI348
aI152
aI5710
aI5710
aI5670
aI5674
aI5680
aI5675
aI358
aI5702
aI348
aI5710
aI5710
aI5710
aI5710
aI5710
aI358
aI5715
aI5710
aI5705
aI5710
aI5710
aI5670
aI5710
aI358
aI5670
aI5640
aI342
aI5710
aI5710
aI5700
aI5710
aI5710
aI5715
aI152
aI5655
aI556
aI5705
aI5710
aI5710
aI5700
aI5690
aI5712
aI5710
aI5700
aI5710
aI5710
aI5700
aI5675
aI5710
aI5700
aI152
aI5700
aI5710
aI5710
aI152
aI358
aI5687
aI5715
aI5715
aI5707
aI348
aI348
aI5710
aI5710
aI5707
aI338
aI358
aI320
aI128
aI152
aI152
aI5705
aI354
aI318
aI338
aI5712
aI5700
aI348
aI5695
aI5705
aI358
aI358
aI5695
aI350
aI5715
aI5710
aI5710
aI152
aI348
aI358
aI5700
aI152
aI5706
aI5705
aI5665
aI5695
aI358
aI5665
aI152
aI5710
aI5700
aI252
aI5710
aI5700
aI5685
aI5717
aI5710
aI152
aI5620
aI5710
aI5714
aI5670
aI5710
aI5700
aI5685
aI5704
aI358
aI5685
aI5710
aI562
aI5675
aI152
aI5625
aI358
aI5610
aI549
aI5710
aI5715
aI5715
aI5701
aI152
aI340
aI152
aI152
aI5710
aI5685
aI502
aI5680
aI5710
aI5660
aI5715
aI5710
aI358
aI358
aI5655
aI5710
aI5710
aI5680
aI5710
aI5700
aI5710
aI5715
aI5665
aI5695
aI5710
aI5625
aI5715
aI358
aI5670
aI358
aI5705
aI5710
aI5695
aI557
aI5710
aI362
aI5710
aI152
aI5710
aI5720
aI5715
aI5710
aI358
aI5702
aI5685
aI5715
aI5715
aI152
aI5705
aI5710
aI5710
aI5685
aI5670
aI5700
aI5700
aI5710
aI5700
aI5710
aI358
aI5700
aI358
aI154
aI5690
aI5700
aI358
aI5635
aI5655
aI5705
aI5705
aI5665
aI358
aI5670
aI5680
aI360
aI5715
aI5710
aI552
aI5710
aI5690
aI5685
aI5710
aI5710
aI360
aI358
aI358
aI5680
aI5710
aI5700
aI360
aI5695
aI358
aI358
aI358
aI5710
aI5710
aI5710
aI5680
aI5710
aI358
aI5600
aI5710
aI358
aI5695
aI358
aI5710
aI358
aI152
aI5710
aI152
aI5710
aI358
aI358
aI358
aI358
aI5700
aI5665
aI5710
aI5710
aI5680
aI358
aI5710
aI5710
aI5710
aI5675
aI152
aI5680
aI358
aI5700
aI5710
aI5705
aI5695
aI5710
aI358
aI5710
aI5710
aI358
aI5710
aI358
aI5625
aI358
aI5710
aI5685
aI5715
aI5710
aI5710
aI542
aI358
aI5710
aI5705
aI5675
aI5680
aI5705
aI5712
aI5715
aI5715
aI5715
aI5695
aI562
aI5715
aI358
aI5715
aI5705
aI152
aI5715
aI5705
aI562
aI358
aI358
aI152
aI358
aI358
aI5715
aI358
aI562
aI564
aI358
aI152
aI5715
aI5716
aI358
aI690
aI358
aI358
aI562
aI5718
aI5717
aI5719
aI562
aI5715
aI557
aI5715
aI154
aI5716
aI353
aI358
aI5717
aI152
aI5715
aI562
aI358
aI5712
aI358
aI5715
aI564
aI552
aI564
aI5721
aI5715
aI5695
aI358
aI358
aI5710
aI564
aI5710
aI5715
aI5705
aI5715
aI562
aI557
aI5715
aI5710
aI5705
aI562
aI358
aI5710
aI5712
aI5700
aI152
aI5700
aI5715
aI358
aI5710
aI5710
aI358
aI5685
aI562
aI5695
aI532
aI358
aI358
aI358
aI5710
aI358
aI5665
aI358
aI5715
aI5680
aI152
aI5680
aI5710
aI5710
aI5710
aI5710
aI5710
aI5705
aI5680
aI5710
aI358
aI358
aI358
aI152
aI358
aI5710
aI5710
aI5710
aI5710
aI5710
aI358
aI152
aI5710
aI5685
aI5700
aI5710
aI5705
aI358
aI360
aI358
aI5695
aI5687
aI5710
aI5710
aI5705
aI358
aI5710
aI358
aI358
aI5700
aI5695
aI5710
aI5710
aI5695
aI5680
aI5705
aI5710
aI358
aI5660
aI358
aI5680
aI358
aI5715
aI5710
aI358
aI5710
aI5715
aI152
aI5710
aI5675
aI5705
aI358
aI5669
aI5710
aI358
aI5710
aI5675
aI5710
aI5710
aI5685
aI5710
aI5710
aI5710
aI5710
aI358
aI358
aI358
as.